 AntiHackServer

 Timestamp is 64aa9418 (Sun Jul  9 18:03:52 2023)

 Preferred load address is 00400000

 Start         Length     Name                   Class
 0001:00000000 000002f0H .text$di                CODE
 0001:000002f0 00025c20H .text$mn                CODE
 0001:00025f10 00000460H .text$x                 CODE
 0001:00026370 0000023dH .text$yd                CODE
 0002:00000000 00000298H .idata$5                DATA
 0002:00000298 00000008H .00cfg                  DATA
 0002:000002a0 00000004H .CRT$XCA                DATA
 0002:000002a4 00000004H .CRT$XCAA               DATA
 0002:000002a8 0000002cH .CRT$XCU                DATA
 0002:000002d4 00000004H .CRT$XCZ                DATA
 0002:000002d8 00000004H .CRT$XIA                DATA
 0002:000002dc 00000004H .CRT$XIAA               DATA
 0002:000002e0 00000004H .CRT$XIAC               DATA
 0002:000002e4 00000014H .CRT$XIC                DATA
 0002:000002f8 00000004H .CRT$XIZ                DATA
 0002:000002fc 00000004H .CRT$XPA                DATA
 0002:00000300 00000008H .CRT$XPX                DATA
 0002:00000308 00000004H .CRT$XPXA               DATA
 0002:0000030c 00000004H .CRT$XPZ                DATA
 0002:00000310 00000004H .CRT$XTA                DATA
 0002:00000314 0000000cH .CRT$XTZ                DATA
 0002:00000318 00000000H .gfids$y                DATA
 0002:00000320 00006c60H .rdata                  DATA
 0002:00006f80 00000000H .rdata$CastGuardVftablesA DATA
 0002:00006f80 00000000H .rdata$CastGuardVftablesC DATA
 0002:00006f80 00000604H .rdata$r                DATA
 0002:00007584 00000070H .rdata$sxdata           DATA
 0002:000075f4 000000c0H .rdata$voltmd           DATA
 0002:000076b4 000003b4H .rdata$zzzdbg           DATA
 0002:00007a68 00000004H .rtc$IAA                DATA
 0002:00007a6c 00000004H .rtc$IZZ                DATA
 0002:00007a70 00000004H .rtc$TAA                DATA
 0002:00007a74 00000004H .rtc$TZZ                DATA
 0002:00007a78 00000d5cH .xdata$x                DATA
 0002:000087d4 00000000H .edata                  DATA
 0002:000087d4 00000078H .idata$2                DATA
 0002:0000884c 00000014H .idata$3                DATA
 0002:00008860 00000298H .idata$4                DATA
 0002:00008af8 00000a72H .idata$6                DATA
 0003:00000000 00005d80H .data                   DATA
 0003:00005d80 000000ccH .data$r                 DATA
 0003:00005e4c 000001acH .data$rs                DATA
 0003:00005ff8 000750e4H .bss                    DATA
 0004:00000000 00000580H .rsrc$01                DATA
 0004:00000580 00048bc0H .rsrc$02                DATA

  Address         Publics by Value              Rva+Base       Lib:Object

 0000:00000000       ___AbsoluteZero            00000000     <absolute>
 0000:00000000       ___arm64x_extra_rfe_table  00000000     <absolute>
 0000:00000000       ___arm64x_extra_rfe_table_size 00000000     <absolute>
 0000:00000000       ___arm64x_native_entrypoint 00000000     <absolute>
 0000:00000000       ___arm64x_redirection_metadata 00000000     <absolute>
 0000:00000000       ___arm64x_redirection_metadata_count 00000000     <absolute>
 0000:00000000       ___dynamic_value_reloc_table 00000000     <absolute>
 0000:00000000       ___enclave_config          00000000     <absolute>
 0000:00000000       ___guard_check_icall_a64n_fptr 00000000     <absolute>
 0000:00000000       ___guard_eh_cont_count     00000000     <absolute>
 0000:00000000       ___guard_eh_cont_table     00000000     <absolute>
 0000:00000000       ___guard_fids_count        00000000     <absolute>
 0000:00000000       ___guard_fids_table        00000000     <absolute>
 0000:00000000       ___guard_iat_count         00000000     <absolute>
 0000:00000000       ___guard_iat_table         00000000     <absolute>
 0000:00000000       ___guard_longjmp_count     00000000     <absolute>
 0000:00000000       ___guard_longjmp_table     00000000     <absolute>
 0000:00000000       ___hybrid_auxiliary_iat    00000000     <absolute>
 0000:00000000       ___hybrid_auxiliary_iat_copy 00000000     <absolute>
 0000:00000000       ___hybrid_code_map         00000000     <absolute>
 0000:00000000       ___hybrid_code_map_count   00000000     <absolute>
 0000:00000000       ___x64_code_ranges_to_entry_points 00000000     <absolute>
 0000:00000000       ___x64_code_ranges_to_entry_points_count 00000000     <absolute>
 0000:00000000       __except_list              00000000     <absolute>
 0000:0000001c       ___safe_se_handler_count   0000001c     <absolute>
 0000:00000100       ___guard_flags             00000100     <absolute>
 0000:00000000       ___ImageBase               00400000     <linker-defined>
 0001:000002f0       ??_ECAuthenticate@@UAEPAXI@Z 004012f0 f i * CIL library *:* CIL module *
 0001:000002f0       ??_GCAuthenticate@@UAEPAXI@Z 004012f0 f i Authenticate.obj
 0001:00000350       ??_ECBlackList@@UAEPAXI@Z  00401350 f i * CIL library *:* CIL module *
 0001:00000350       ??_GCBlackList@@UAEPAXI@Z  00401350 f i BlackList.obj
 0001:00000390       ?SetList@CBlackList@@QAEXPAD@Z 00401390 f   BlackList.obj
 0001:000005c0       ??1?$vector@UBLACKLIST_HARDID_INFO@@V?$allocator@UBLACKLIST_HARDID_INFO@@@std@@@std@@QAE@XZ 004015c0 f i BlackList.obj
 0001:00000630       ??1?$vector@UBLACKLIST_IPADDR_INFO@@V?$allocator@UBLACKLIST_IPADDR_INFO@@@std@@@std@@QAE@XZ 00401630 f i BlackList.obj
 0001:000006a0       ??$_Emplace_reallocate@ABUBLACKLIST_HARDID_INFO@@@?$vector@UBLACKLIST_HARDID_INFO@@V?$allocator@UBLACKLIST_HARDID_INFO@@@std@@@std@@AAEPAUBLACKLIST_HARDID_INFO@@QAU2@ABU2@@Z 004016a0 f i BlackList.obj
 0001:00000860       ??$_Emplace_reallocate@ABUBLACKLIST_IPADDR_INFO@@@?$vector@UBLACKLIST_IPADDR_INFO@@V?$allocator@UBLACKLIST_IPADDR_INFO@@@std@@@std@@AAEPAUBLACKLIST_IPADDR_INFO@@QAU2@ABU2@@Z 00401860 f i BlackList.obj
 0001:00000a20       ?_Xlength@?$vector@UBLACKLIST_HARDID_INFO@@V?$allocator@UBLACKLIST_HARDID_INFO@@@std@@@std@@CAXXZ 00401a20 f i BlackList.obj
 0001:00000a20       ?_Xlength@?$vector@UBLACKLIST_IPADDR_INFO@@V?$allocator@UBLACKLIST_IPADDR_INFO@@@std@@@std@@CAXXZ 00401a20 f i BlackList.obj
 0001:00000a20       ?_Xlength@?$vector@UCSUM_LIST_INFO@@V?$allocator@UCSUM_LIST_INFO@@@std@@@std@@CAXXZ 00401a20 f i ReadFiles.obj
 0001:00000a20       ?_Xlength@?$vector@UDUMP_LIST_INFO@@V?$allocator@UDUMP_LIST_INFO@@@std@@@std@@CAXXZ 00401a20 f i ReadFiles.obj
 0001:00000a20       ?_Xlength@?$vector@UHARDWARE_ID_INFO@@V?$allocator@UHARDWARE_ID_INFO@@@std@@@std@@CAXXZ 00401a20 f i HidManager.obj
 0001:00000a20       ?_Xlength@?$vector@UITRN_LIST_INFO@@V?$allocator@UITRN_LIST_INFO@@@std@@@std@@CAXXZ 00401a20 f i ReadFiles.obj
 0001:00000a20       ?_Xlength@?$vector@UWNDW_LIST_INFO@@V?$allocator@UWNDW_LIST_INFO@@@std@@@std@@CAXXZ 00401a20 f i ReadFiles.obj
 0001:00000a30       ??0bad_array_new_length@std@@QAE@XZ 00401a30 f i BlackList.obj
 0001:00000a50       ??1bad_alloc@std@@UAE@XZ   00401a50 f i BlackList.obj
 0001:00000a50       ??1bad_array_new_length@std@@UAE@XZ 00401a50 f i BlackList.obj
 0001:00000a50       ??1bad_exception@std@@UAE@XZ 00401a50 f i libvcruntime:frame.obj
 0001:00000a50       ??1length_error@std@@UAE@XZ 00401a50 f i libcpmt:xthrow.obj
 0001:00000a70       ??_Ebad_alloc@std@@UAEPAXI@Z 00401a70 f i * CIL library *:* CIL module *
 0001:00000a70       ??_Ebad_array_new_length@std@@UAEPAXI@Z 00401a70 f i * CIL library *:* CIL module *
 0001:00000a70       ??_Eexception@std@@UAEPAXI@Z 00401a70 f i * CIL library *:* CIL module *
 0001:00000a70       ??_Gbad_alloc@std@@UAEPAXI@Z 00401a70 f i BlackList.obj
 0001:00000a70       ??_Gbad_array_new_length@std@@UAEPAXI@Z 00401a70 f i BlackList.obj
 0001:00000a70       ??_Gexception@std@@UAEPAXI@Z 00401a70 f i BlackList.obj
 0001:00000aa0       ??0bad_array_new_length@std@@QAE@ABV01@@Z 00401aa0 f i BlackList.obj
 0001:00000ae0       ??0bad_alloc@std@@QAE@ABV01@@Z 00401ae0 f i BlackList.obj
 0001:00000b20       ?what@exception@std@@UBEPBDXZ 00401b20 f i BlackList.obj
 0001:00000b30       ??0exception@std@@QAE@ABV01@@Z 00401b30 f i BlackList.obj
 0001:00000b60       ?_Throw_bad_array_new_length@std@@YAXXZ 00401b60 f i BlackList.obj
 0001:00000b60       ?__scrt_throw_std_bad_array_new_length@@YAXXZ 00401b60 f i LIBCMT:throw_bad_alloc.obj
 0001:00000b80       ?Initialize@CCRC32@@QAEXXZ 00401b80 f   CCRC32.obj
 0001:00000cb0       ?FileCRC@CCRC32@@QAE_NPBDPAKK@Z 00401cb0 f   CCRC32.obj
 0001:00000d90       ??0CClientManager@@QAE@XZ  00401d90 f   ClientManager.obj
 0001:00000e50       ??_ECClientManager@@UAEPAXI@Z 00401e50 f i * CIL library *:* CIL module *
 0001:00000e50       ??_GCClientManager@@UAEPAXI@Z 00401e50 f i ClientManager.obj
 0001:00000ea0       ??1?$set@V?$basic_string@DU?$char_traits@D@std@@V?$allocator@D@2@@std@@U?$less@V?$basic_string@DU?$char_traits@D@std@@V?$allocator@D@2@@std@@@2@V?$allocator@V?$basic_string@DU?$char_traits@D@std@@V?$allocator@D@2@@std@@@2@@std@@QAE@XZ 00401ea0 f i ClientManager.obj
 0001:00000ec0       ??1CClientManager@@UAE@XZ  00401ec0 f   ClientManager.obj
 0001:00000ef0       ?DelClient@CClientManager@@QAEXXZ 00401ef0 f   ClientManager.obj
 0001:00001060       ??4?$set@V?$basic_string@DU?$char_traits@D@std@@V?$allocator@D@2@@std@@U?$less@V?$basic_string@DU?$char_traits@D@std@@V?$allocator@D@2@@std@@@2@V?$allocator@V?$basic_string@DU?$char_traits@D@std@@V?$allocator@D@2@@std@@@2@@std@@QAEAAV01@V?$initializer_list@V?$basic_string@DU?$char_traits@D@std@@V?$allocator@D@2@@std@@@1@@Z 00402060 f i ClientManager.obj
 0001:00001180       ?_Getal@?$_Tree@V?$_Tset_traits@V?$basic_string@DU?$char_traits@D@std@@V?$allocator@D@2@@std@@U?$less@V?$basic_string@DU?$char_traits@D@std@@V?$allocator@D@2@@std@@@2@V?$allocator@V?$basic_string@DU?$char_traits@D@std@@V?$allocator@D@2@@std@@@2@$0A@@std@@@std@@IAEAAV?$allocator@U?$_Tree_node@V?$basic_string@DU?$char_traits@D@std@@V?$allocator@D@2@@std@@PAX@std@@@2@XZ 00402180 f i ClientManager.obj
 0001:00001190       ??$insert@$0A@$0A@@?$_Tree@V?$_Tset_traits@V?$basic_string@DU?$char_traits@D@std@@V?$allocator@D@2@@std@@U?$less@V?$basic_string@DU?$char_traits@D@std@@V?$allocator@D@2@@std@@@2@V?$allocator@V?$basic_string@DU?$char_traits@D@std@@V?$allocator@D@2@@std@@@2@$0A@@std@@@std@@QAE?AU?$pair@V?$_Tree_const_iterator@V?$_Tree_val@U?$_Tree_simple_types@V?$basic_string@DU?$char_traits@D@std@@V?$allocator@D@2@@std@@@std@@@std@@@std@@_N@1@$$QAV?$basic_string@DU?$char_traits@D@std@@V?$allocator@D@2@@1@@Z 00402190 f i ClientManager.obj
 0001:000012b0       ??$_Erase_tree@V?$allocator@U?$_Tree_node@V?$basic_string@DU?$char_traits@D@std@@V?$allocator@D@2@@std@@PAX@std@@@std@@@?$_Tree_val@U?$_Tree_simple_types@V?$basic_string@DU?$char_traits@D@std@@V?$allocator@D@2@@std@@@std@@@std@@QAEXAAV?$allocator@U?$_Tree_node@V?$basic_string@DU?$char_traits@D@std@@V?$allocator@D@2@@std@@PAX@std@@@1@PAU?$_Tree_node@V?$basic_string@DU?$char_traits@D@std@@V?$allocator@D@2@@std@@PAX@1@@Z 004022b0 f i ClientManager.obj
 0001:000012b0       ??$_Erase_tree_and_orphan@V?$allocator@U?$_Tree_node@V?$basic_string@DU?$char_traits@D@std@@V?$allocator@D@2@@std@@PAX@std@@@std@@@?$_Tree_val@U?$_Tree_simple_types@V?$basic_string@DU?$char_traits@D@std@@V?$allocator@D@2@@std@@@std@@@std@@QAEXAAV?$allocator@U?$_Tree_node@V?$basic_string@DU?$char_traits@D@std@@V?$allocator@D@2@@std@@PAX@std@@@1@PAU?$_Tree_node@V?$basic_string@DU?$char_traits@D@std@@V?$allocator@D@2@@std@@PAX@1@@Z 004022b0 f i HackServer.obj
 0001:00001340       ?_Insert_node@?$_Tree_val@U?$_Tree_simple_types@U?$pair@$$CBKUPROCESS_CACHE_INFO@@@std@@@std@@@std@@QAEPAU?$_Tree_node@U?$pair@$$CBKUPROCESS_CACHE_INFO@@@std@@PAX@2@U?$_Tree_id@PAU?$_Tree_node@U?$pair@$$CBKUPROCESS_CACHE_INFO@@@std@@PAX@std@@@2@QAU32@@Z 00402340 f i ProcessManager.obj
 0001:00001340       ?_Insert_node@?$_Tree_val@U?$_Tree_simple_types@U?$pair@$$CBV?$basic_string@DU?$char_traits@D@std@@V?$allocator@D@2@@std@@UIP_ADDRESS_INFO@@@std@@@std@@@std@@QAEPAU?$_Tree_node@U?$pair@$$CBV?$basic_string@DU?$char_traits@D@std@@V?$allocator@D@2@@std@@UIP_ADDRESS_INFO@@@std@@PAX@2@U?$_Tree_id@PAU?$_Tree_node@U?$pair@$$CBV?$basic_string@DU?$char_traits@D@std@@V?$allocator@D@2@@std@@UIP_ADDRESS_INFO@@@std@@PAX@std@@@2@QAU32@@Z 00402340 f i IpManager.obj
 0001:00001340       ?_Insert_node@?$_Tree_val@U?$_Tree_simple_types@V?$basic_string@DU?$char_traits@D@std@@V?$allocator@D@2@@std@@@std@@@std@@QAEPAU?$_Tree_node@V?$basic_string@DU?$char_traits@D@std@@V?$allocator@D@2@@std@@PAX@2@U?$_Tree_id@PAU?$_Tree_node@V?$basic_string@DU?$char_traits@D@std@@V?$allocator@D@2@@std@@PAX@std@@@2@QAU32@@Z 00402340 f i ClientManager.obj
 0001:00001530       ??1?$_Alloc_construct_ptr@V?$allocator@U?$_Tree_node@V?$basic_string@DU?$char_traits@D@std@@V?$allocator@D@2@@std@@PAX@std@@@std@@@std@@QAE@XZ 00402530 f i ClientManager.obj
 0001:00001530       ??1?$_Tree_temp_node_alloc@V?$allocator@U?$_Tree_node@V?$basic_string@DU?$char_traits@D@std@@V?$allocator@D@2@@std@@PAX@std@@@std@@@std@@QAE@XZ 00402530 f i ClientManager.obj
 0001:00001550       ??$_Find_lower_bound@V?$basic_string@DU?$char_traits@D@std@@V?$allocator@D@2@@std@@@?$_Tree@V?$_Tmap_traits@V?$basic_string@DU?$char_traits@D@std@@V?$allocator@D@2@@std@@UIP_ADDRESS_INFO@@U?$less@V?$basic_string@DU?$char_traits@D@std@@V?$allocator@D@2@@std@@@2@V?$allocator@U?$pair@$$CBV?$basic_string@DU?$char_traits@D@std@@V?$allocator@D@2@@std@@UIP_ADDRESS_INFO@@@std@@@2@$0A@@std@@@std@@IBE?AU?$_Tree_find_result@PAU?$_Tree_node@U?$pair@$$CBV?$basic_string@DU?$char_traits@D@std@@V?$allocator@D@2@@std@@UIP_ADDRESS_INFO@@@std@@PAX@std@@@1@ABV?$basic_string@DU?$char_traits@D@std@@V?$allocator@D@2@@1@@Z 00402550 f i IpManager.obj
 0001:00001550       ??$_Find_lower_bound@V?$basic_string@DU?$char_traits@D@std@@V?$allocator@D@2@@std@@@?$_Tree@V?$_Tset_traits@V?$basic_string@DU?$char_traits@D@std@@V?$allocator@D@2@@std@@U?$less@V?$basic_string@DU?$char_traits@D@std@@V?$allocator@D@2@@std@@@2@V?$allocator@V?$basic_string@DU?$char_traits@D@std@@V?$allocator@D@2@@std@@@2@$0A@@std@@@std@@IBE?AU?$_Tree_find_result@PAU?$_Tree_node@V?$basic_string@DU?$char_traits@D@std@@V?$allocator@D@2@@std@@PAX@std@@@1@ABV?$basic_string@DU?$char_traits@D@std@@V?$allocator@D@2@@1@@Z 00402550 f i ClientManager.obj
 0001:000015b0       ??$_Find_hint@V?$basic_string@DU?$char_traits@D@std@@V?$allocator@D@2@@std@@@?$_Tree@V?$_Tset_traits@V?$basic_string@DU?$char_traits@D@std@@V?$allocator@D@2@@std@@U?$less@V?$basic_string@DU?$char_traits@D@std@@V?$allocator@D@2@@std@@@2@V?$allocator@V?$basic_string@DU?$char_traits@D@std@@V?$allocator@D@2@@std@@@2@$0A@@std@@@std@@IBE?AU?$_Tree_find_hint_result@PAU?$_Tree_node@V?$basic_string@DU?$char_traits@D@std@@V?$allocator@D@2@@std@@PAX@std@@@1@QAU?$_Tree_node@V?$basic_string@DU?$char_traits@D@std@@V?$allocator@D@2@@std@@PAX@1@ABV?$basic_string@DU?$char_traits@D@std@@V?$allocator@D@2@@1@@Z 004025b0 f i ClientManager.obj
 0001:00001800       ??R?$less@V?$basic_string@DU?$char_traits@D@std@@V?$allocator@D@2@@std@@@std@@QBE_NABV?$basic_string@DU?$char_traits@D@std@@V?$allocator@D@2@@1@0@Z 00402800 f i ClientManager.obj
 0001:000018b0       ??0?$basic_string@DU?$char_traits@D@std@@V?$allocator@D@2@@std@@QAE@ABV01@@Z 004028b0 f i ClientManager.obj
 0001:000019b0       ?_Throw_tree_length_error@std@@YAXXZ 004029b0 f i ClientManager.obj
 0001:000019c0       ??1?$basic_string@DU?$char_traits@D@std@@V?$allocator@D@2@@std@@QAE@XZ 004029c0 f i ClientManager.obj
 0001:000019c0       ??1?$pair@V?$basic_string@DU?$char_traits@D@std@@V?$allocator@D@2@@std@@UIP_ADDRESS_INFO@@@std@@QAE@XZ 004029c0 f i IpManager.obj
 0001:00001a10       ?_Xlen_string@std@@YAXXZ   00402a10 f i ClientManager.obj
 0001:00001a20       ??0?$basic_string@DU?$char_traits@D@std@@V?$allocator@D@2@@std@@QAE@QBD@Z 00402a20 f i ClientManager.obj
 0001:00001b20       ??_ECCriticalSection@@UAEPAXI@Z 00402b20 f i * CIL library *:* CIL module *
 0001:00001b20       ??_GCCriticalSection@@UAEPAXI@Z 00402b20 f i CriticalSection.obj
 0001:00001b50       ??1CCriticalSection@@UAE@XZ 00402b50 f   CriticalSection.obj
 0001:00001b70       ?httpGet@@YAHPADH0@Z       00402b70 f   FileDownloadHTTP.obj
 0001:00001e10       ??$sprintf_s@$0PPPP@@@YAHAAY0PPPP@DPBDZZ 00402e10 f i FileDownloadHTTP.obj
 0001:00001e30       ___local_stdio_printf_options 00402e30 f i FileDownloadHTTP.obj
 0001:00001e40       __vsprintf_s_l             00402e40 f i FileDownloadHTTP.obj
 0001:00001e90       _WinMain@16                00402e90 f   HackServer.obj
 0001:000022a0       ?PlayersList@@YGJPAUHWND__@@IIJ@Z 004032a0 f   HackServer.obj
 0001:00002880       ?WndProc@@YGJPAUHWND__@@IIJ@Z 00403880 f   HackServer.obj
 0001:00002d30       ?About@@YGJPAUHWND__@@IIJ@Z 00403d30 f   HackServer.obj
 0001:00002d70       ??1?$_Tree_head_scoped_ptr@V?$allocator@U?$_Tree_node@V?$basic_string@DU?$char_traits@D@std@@V?$allocator@D@2@@std@@PAX@std@@@std@@V?$_Tree_val@U?$_Tree_simple_types@V?$basic_string@DU?$char_traits@D@std@@V?$allocator@D@2@@std@@@std@@@2@@std@@QAE@XZ 00403d70 f i HackServer.obj
 0001:00002da0       ??$_Copy_nodes@$0A@@?$_Tree@V?$_Tset_traits@V?$basic_string@DU?$char_traits@D@std@@V?$allocator@D@2@@std@@U?$less@V?$basic_string@DU?$char_traits@D@std@@V?$allocator@D@2@@std@@@2@V?$allocator@V?$basic_string@DU?$char_traits@D@std@@V?$allocator@D@2@@std@@@2@$0A@@std@@@std@@IAEPAU?$_Tree_node@V?$basic_string@DU?$char_traits@D@std@@V?$allocator@D@2@@std@@PAX@1@PAU21@0@Z 00403da0 f i HackServer.obj
 0001:00002e90       __vsnprintf_l              00403e90 f i HackServer.obj
 0001:00002ed0       _sprintf                   00403ed0 f i HackServer.obj
 0001:00002ef0       ?CHCProcessInfoRecv@@YAXPAUSHDP_SHOW_PROCESS_SEND@@H@Z 00403ef0 f   HackServerProtocol.obj
 0001:00002fb0       ?CHClientInfoRecv@@YAXPAUSDHP_CLIENT_INFO_RECV@@H@Z 00403fb0 f   HackServerProtocol.obj
 0001:000034b0       ?CHClientDisconnectRecv@@YAXPAUSDHP_CLIENT_DISCONNECT_RECV@@H@Z 004044b0 f   HackServerProtocol.obj
 0001:00003c40       ?HCDumpListSend@@YAXH@Z    00404c40 f   HackServerProtocol.obj
 0001:00003e00       ?HCChecksumListSend@@YAXH@Z 00404e00 f   HackServerProtocol.obj
 0001:00003f90       ?HCInternalListSend@@YAXH@Z 00404f90 f   HackServerProtocol.obj
 0001:00004110       ?HCWindowListSend@@YAXH@Z  00405110 f   HackServerProtocol.obj
 0001:000042c0       ??_ECHidManager@@UAEPAXI@Z 004052c0 f i * CIL library *:* CIL module *
 0001:000042c0       ??_GCHidManager@@UAEPAXI@Z 004052c0 f i HidManager.obj
 0001:000042f0       ??1?$vector@UHARDWARE_ID_INFO@@V?$allocator@UHARDWARE_ID_INFO@@@std@@@std@@QAE@XZ 004052f0 f i HidManager.obj
 0001:00004360       ??$_Emplace_reallocate@ABUHARDWARE_ID_INFO@@@?$vector@UHARDWARE_ID_INFO@@V?$allocator@UHARDWARE_ID_INFO@@@std@@@std@@AAEPAUHARDWARE_ID_INFO@@QAU2@ABU2@@Z 00405360 f i HidManager.obj
 0001:00004520       ??_ECIpManager@@UAEPAXI@Z  00405520 f i * CIL library *:* CIL module *
 0001:00004520       ??_GCIpManager@@UAEPAXI@Z  00405520 f i IpManager.obj
 0001:00004570       ?InsertIpAddress@CIpManager@@QAEXPAD@Z 00405570 f   IpManager.obj
 0001:00004860       ??E?$_Tree_unchecked_const_iterator@V?$_Tree_val@U?$_Tree_simple_types@U?$pair@$$CBKUPROCESS_CACHE_INFO@@@std@@@std@@@std@@U_Iterator_base0@2@@std@@QAEAAV01@XZ 00405860 f i ProcessManager.obj
 0001:00004860       ??E?$_Tree_unchecked_const_iterator@V?$_Tree_val@U?$_Tree_simple_types@U?$pair@$$CBV?$basic_string@DU?$char_traits@D@std@@V?$allocator@D@2@@std@@UIP_ADDRESS_INFO@@@std@@@std@@@std@@U_Iterator_base0@2@@std@@QAEAAV01@XZ 00405860 f i IpManager.obj
 0001:000048c0       ?_Extract@?$_Tree_val@U?$_Tree_simple_types@U?$pair@$$CBV?$basic_string@DU?$char_traits@D@std@@V?$allocator@D@2@@std@@UIP_ADDRESS_INFO@@@std@@@std@@@std@@QAEPAU?$_Tree_node@U?$pair@$$CBV?$basic_string@DU?$char_traits@D@std@@V?$allocator@D@2@@std@@UIP_ADDRESS_INFO@@@std@@PAX@2@V?$_Tree_unchecked_const_iterator@V?$_Tree_val@U?$_Tree_simple_types@U?$pair@$$CBV?$basic_string@DU?$char_traits@D@std@@V?$allocator@D@2@@std@@UIP_ADDRESS_INFO@@@std@@@std@@@std@@U_Iterator_base0@2@@2@@Z 004058c0 f i IpManager.obj
 0001:00004cd0       ??$_Erase_tree@V?$allocator@U?$_Tree_node@U?$pair@$$CBV?$basic_string@DU?$char_traits@D@std@@V?$allocator@D@2@@std@@UIP_ADDRESS_INFO@@@std@@PAX@std@@@std@@@?$_Tree_val@U?$_Tree_simple_types@U?$pair@$$CBV?$basic_string@DU?$char_traits@D@std@@V?$allocator@D@2@@std@@UIP_ADDRESS_INFO@@@std@@@std@@@std@@QAEXAAV?$allocator@U?$_Tree_node@U?$pair@$$CBV?$basic_string@DU?$char_traits@D@std@@V?$allocator@D@2@@std@@UIP_ADDRESS_INFO@@@std@@PAX@std@@@1@PAU?$_Tree_node@U?$pair@$$CBV?$basic_string@DU?$char_traits@D@std@@V?$allocator@D@2@@std@@UIP_ADDRESS_INFO@@@std@@PAX@1@@Z 00405cd0 f i IpManager.obj
 0001:00004d60       ??1?$_Alloc_construct_ptr@V?$allocator@U?$_Tree_node@U?$pair@$$CBV?$basic_string@DU?$char_traits@D@std@@V?$allocator@D@2@@std@@UIP_ADDRESS_INFO@@@std@@PAX@std@@@std@@@std@@QAE@XZ 00405d60 f i IpManager.obj
 0001:00004d80       ??_ECLog@@UAEPAXI@Z        00405d80 f i * CIL library *:* CIL module *
 0001:00004d80       ??_GCLog@@UAEPAXI@Z        00405d80 f i Log.obj
 0001:00004db0       ??1CLog@@UAE@XZ            00405db0 f   Log.obj
 0001:00004e00       ?AddLog@CLog@@QAEXHPAD@Z   00405e00 f   Log.obj
 0001:00004f20       ?Output@CLog@@QAAXW4eLogType@@PADZZ 00405f20 f   Log.obj
 0001:00005120       ??_ECMemScript@@UAEPAXI@Z  00406120 f i * CIL library *:* CIL module *
 0001:00005120       ??_GCMemScript@@UAEPAXI@Z  00406120 f i MemScript.obj
 0001:00005160       ?SetBuffer@CMemScript@@QAE_NPADH@Z 00406160 f   MemScript.obj
 0001:00005290       ?GetToken@CMemScript@@QAEHXZ 00406290 f   MemScript.obj
 0001:000055c0       ??$sprintf_s@$0BAE@@@YAHAAY0BAE@DPBDZZ 004065c0 f i MemScript.obj
 0001:000055e0       ___local_stdio_scanf_options 004065e0 f i MemScript.obj
 0001:000055f0       __vsscanf_s_l              004065f0 f i MemScript.obj
 0001:00005620       _sscanf_s                  00406620 f i MemScript.obj
 0001:00005640       ?DumpExceptionFilter@@YGJPAU_EXCEPTION_POINTERS@@@Z 00406640 f   MiniDump.obj
 0001:00005750       ??_ECProcessManager@@UAEPAXI@Z 00406750 f i * CIL library *:* CIL module *
 0001:00005750       ??_GCProcessManager@@UAEPAXI@Z 00406750 f i ProcessManager.obj
 0001:00005790       ?CheckProcess@CProcessManager@@QAE_NXZ 00406790 f   ProcessManager.obj
 0001:00005ce0       ??1?$_Tree@V?$_Tmap_traits@KUPROCESS_CACHE_INFO@@U?$less@K@std@@V?$allocator@U?$pair@$$CBKUPROCESS_CACHE_INFO@@@std@@@3@$0A@@std@@@std@@QAE@XZ 00406ce0 f i ProcessManager.obj
 0001:00005d20       ?_Extract@?$_Tree_val@U?$_Tree_simple_types@U?$pair@$$CBKUPROCESS_CACHE_INFO@@@std@@@std@@@std@@QAEPAU?$_Tree_node@U?$pair@$$CBKUPROCESS_CACHE_INFO@@@std@@PAX@2@V?$_Tree_unchecked_const_iterator@V?$_Tree_val@U?$_Tree_simple_types@U?$pair@$$CBKUPROCESS_CACHE_INFO@@@std@@@std@@@std@@U_Iterator_base0@2@@2@@Z 00406d20 f i ProcessManager.obj
 0001:00006170       ??$_Find_lower_bound@K@?$_Tree@V?$_Tmap_traits@KUPROCESS_CACHE_INFO@@U?$less@K@std@@V?$allocator@U?$pair@$$CBKUPROCESS_CACHE_INFO@@@std@@@3@$0A@@std@@@std@@IBE?AU?$_Tree_find_result@PAU?$_Tree_node@U?$pair@$$CBKUPROCESS_CACHE_INFO@@@std@@PAX@std@@@1@ABK@Z 00407170 f i ProcessManager.obj
 0001:000061c0       ??$_Erase_tree@V?$allocator@U?$_Tree_node@U?$pair@$$CBKUPROCESS_CACHE_INFO@@@std@@PAX@std@@@std@@@?$_Tree_val@U?$_Tree_simple_types@U?$pair@$$CBKUPROCESS_CACHE_INFO@@@std@@@std@@@std@@QAEXAAV?$allocator@U?$_Tree_node@U?$pair@$$CBKUPROCESS_CACHE_INFO@@@std@@PAX@std@@@1@PAU?$_Tree_node@U?$pair@$$CBKUPROCESS_CACHE_INFO@@@std@@PAX@1@@Z 004071c0 f i ProcessManager.obj
 0001:00006200       ??1?$_Alloc_construct_ptr@V?$allocator@U?$_Tree_node@U?$pair@$$CBKUPROCESS_CACHE_INFO@@@std@@PAX@std@@@std@@@std@@QAE@XZ 00407200 f i ProcessManager.obj
 0001:00006220       ??_ECQueue@@UAEPAXI@Z      00407220 f i * CIL library *:* CIL module *
 0001:00006220       ??_GCQueue@@UAEPAXI@Z      00407220 f i Queue.obj
 0001:000062a0       ?ClearQueue@CQueue@@QAEXXZ 004072a0 f   Queue.obj
 0001:000063f0       ??1?$deque@UQUEUE_INFO@@V?$allocator@UQUEUE_INFO@@@std@@@std@@QAE@XZ 004073f0 f i Queue.obj
 0001:000064a0       ?_Growmap@?$deque@UQUEUE_INFO@@V?$allocator@UQUEUE_INFO@@@std@@@std@@AAEXI@Z 004074a0 f i Queue.obj
 0001:00006650       ?_Xlen@?$deque@UQUEUE_INFO@@V?$allocator@UQUEUE_INFO@@@std@@@std@@ABEXXZ 00407650 f i Queue.obj
 0001:00006660       ??_ECReadFiles@@UAEPAXI@Z  00407660 f i * CIL library *:* CIL module *
 0001:00006660       ??_GCReadFiles@@UAEPAXI@Z  00407660 f i ReadFiles.obj
 0001:000066b0       ?DumpList@CReadFiles@@QAEXPAD@Z 004076b0 f   ReadFiles.obj
 0001:00006910       ?ChecksumList@CReadFiles@@QAEXPAD@Z 00407910 f   ReadFiles.obj
 0001:00006ad0       ?InternalList@CReadFiles@@QAEXPAD@Z 00407ad0 f   ReadFiles.obj
 0001:00006c70       ?WindowList@CReadFiles@@QAEXPAD@Z 00407c70 f   ReadFiles.obj
 0001:00006e00       ?UpdateInternalList@CReadFiles@@QAEXXZ 00407e00 f   ReadFiles.obj
 0001:00007180       ??1?$vector@UWNDW_LIST_INFO@@V?$allocator@UWNDW_LIST_INFO@@@std@@@std@@QAE@XZ 00408180 f i ReadFiles.obj
 0001:000071f0       ??1?$vector@UITRN_LIST_INFO@@V?$allocator@UITRN_LIST_INFO@@@std@@@std@@QAE@XZ 004081f0 f i ReadFiles.obj
 0001:00007260       ??1?$vector@UCSUM_LIST_INFO@@V?$allocator@UCSUM_LIST_INFO@@@std@@@std@@QAE@XZ 00408260 f i ReadFiles.obj
 0001:000072d0       ??1?$vector@UDUMP_LIST_INFO@@V?$allocator@UDUMP_LIST_INFO@@@std@@@std@@QAE@XZ 004082d0 f i ReadFiles.obj
 0001:00007340       ??$_Emplace_reallocate@ABUWNDW_LIST_INFO@@@?$vector@UWNDW_LIST_INFO@@V?$allocator@UWNDW_LIST_INFO@@@std@@@std@@AAEPAUWNDW_LIST_INFO@@QAU2@ABU2@@Z 00408340 f i ReadFiles.obj
 0001:00007520       ??$_Emplace_reallocate@ABUITRN_LIST_INFO@@@?$vector@UITRN_LIST_INFO@@V?$allocator@UITRN_LIST_INFO@@@std@@@std@@AAEPAUITRN_LIST_INFO@@QAU2@ABU2@@Z 00408520 f i ReadFiles.obj
 0001:000076e0       ??$_Emplace_reallocate@ABUCSUM_LIST_INFO@@@?$vector@UCSUM_LIST_INFO@@V?$allocator@UCSUM_LIST_INFO@@@std@@@std@@AAEPAUCSUM_LIST_INFO@@QAU2@ABU2@@Z 004086e0 f i ReadFiles.obj
 0001:000078a0       ??$_Emplace_reallocate@ABUDUMP_LIST_INFO@@@?$vector@UDUMP_LIST_INFO@@V?$allocator@UDUMP_LIST_INFO@@@std@@@std@@AAEPAUDUMP_LIST_INFO@@QAU2@ABU2@@Z 004088a0 f i ReadFiles.obj
 0001:00007a80       ??_ECServerDisplayer@@UAEPAXI@Z 00408a80 f i * CIL library *:* CIL module *
 0001:00007a80       ??_GCServerDisplayer@@UAEPAXI@Z 00408a80 f i ServerDisplayer.obj
 0001:00007ac0       ?PaintAllInfo@CServerDisplayer@@QAEXXZ 00408ac0 f   ServerDisplayer.obj
 0001:00007c20       ??_ECServerInfo@@UAEPAXI@Z 00408c20 f i * CIL library *:* CIL module *
 0001:00007c20       ??_GCServerInfo@@UAEPAXI@Z 00408c20 f i ServerInfo.obj
 0001:00007c50       ?ReadConfig@CServerInfo@@QAEXPAD0@Z 00408c50 f   ServerInfo.obj
 0001:00007f90       ??_ECSocketManager@@UAEPAXI@Z 00408f90 f i * CIL library *:* CIL module *
 0001:00007f90       ??_GCSocketManager@@UAEPAXI@Z 00408f90 f i SocketManager.obj
 0001:00008040       ?Start@CSocketManager@@QAE_NG@Z 00409040 f   SocketManager.obj
 0001:00008300       ?Clean@CSocketManager@@QAEXXZ 00409300 f   SocketManager.obj
 0001:000083d0       ?DataRecv@CSocketManager@@QAE_NHPAUIO_MAIN_BUFFER@@@Z 004093d0 f   SocketManager.obj
 0001:000085f0       ?DataSend@CSocketManager@@QAE_NHPAEH@Z 004095f0 f   SocketManager.obj
 0001:00008810       ?Disconnect@CSocketManager@@QAEXH@Z 00409810 f   SocketManager.obj
 0001:000088b0       ?OnSend@CSocketManager@@QAEXHKPAUIO_SEND_CONTEXT@@@Z 004098b0 f   SocketManager.obj
 0001:00008a60       ?ServerAcceptCondition@CSocketManager@@SGHPAU_WSABUF@@0PAU_QualityOfService@@100PAIPAV1@@Z 00409a60 f   SocketManager.obj
 0001:00008b40       ?ServerAcceptThread@CSocketManager@@SGKPAV1@@Z 00409b40 f   SocketManager.obj
 0001:00008ed0       ?ServerWorkerThread@CSocketManager@@SGKPAV1@@Z 00409ed0 f   SocketManager.obj
 0001:00009080       ?ServerQueueThread@CSocketManager@@SGKPAV1@@Z 0040a080 f   SocketManager.obj
 0001:00009220       ?ErrorMessageBox@@YAXPADZZ 0040a220 f   Util.obj
 0001:000092a0       ?LogAdd@@YAXW4eLogColor@@PADZZ 0040a2a0 f   Util.obj
 0001:000093e0       ?GetUserCount@@YAHXZ       0040a3e0 f   Util.obj
 0001:00009420       ?PacketDecryptData@@YAXPAEHE@Z 0040a420 f   Util.obj
 0001:000094d0       ?PacketEncryptData@@YAXPAEHE@Z 0040a4d0 f   Util.obj
 0001:00009580       ?GetCurrentVersion@@YAKXZ  0040a580 f   Util.obj
 0001:00009630       ??$sprintf_s@$09@@YAHAAY09DPBDZZ 0040a630 f i Util.obj
 0001:0000964b       ??0bad_alloc@std@@QAE@XZ   0040a64b f i libcpmt:xthrow.obj
 0001:00009663       ??0exception@std@@QAE@QBD@Z 0040a663 f i libcpmt:xthrow.obj
 0001:00009698       ??0length_error@std@@QAE@ABV01@@Z 0040a698 f i libcpmt:xthrow.obj
 0001:000096b3       ??0length_error@std@@QAE@PBD@Z 0040a6b3 f i libcpmt:xthrow.obj
 0001:000096d2       ??0logic_error@std@@QAE@ABV01@@Z 0040a6d2 f i libcpmt:xthrow.obj
 0001:000096ed       ??_Ebad_exception@std@@UAEPAXI@Z 0040a6ed f i libvcruntime:frame.obj
 0001:000096ed       ??_Elength_error@std@@UAEPAXI@Z 0040a6ed f i libcpmt:xthrow.obj
 0001:000096ed       ??_Elogic_error@std@@UAEPAXI@Z 0040a6ed f i libcpmt:xthrow.obj
 0001:000096ed       ??_Gbad_exception@std@@UAEPAXI@Z 0040a6ed f i libvcruntime:frame.obj
 0001:000096ed       ??_Glength_error@std@@UAEPAXI@Z 0040a6ed f i libcpmt:xthrow.obj
 0001:000096ed       ??_Glogic_error@std@@UAEPAXI@Z 0040a6ed f i libcpmt:xthrow.obj
 0001:0000971a       ?_Xlength_error@std@@YAXPBD@Z 0040a71a f   libcpmt:xthrow.obj
 0001:0000973a       @__security_check_cookie@4 0040a73a f   LIBCMT:secchk.obj
 0001:0000978c       ___scrt_acquire_startup_lock 0040a78c f   LIBCMT:utility.obj
 0001:000097be       ___scrt_initialize_crt     0040a7be f   LIBCMT:utility.obj
 0001:000097f7       ___scrt_initialize_onexit_tables 0040a7f7 f   LIBCMT:utility.obj
 0001:0000987e       ___scrt_is_nonwritable_in_current_image 0040a87e f   LIBCMT:utility.obj
 0001:00009912       ___scrt_release_startup_lock 0040a912 f   LIBCMT:utility.obj
 0001:0000992f       ___scrt_uninitialize_crt   0040a92f f   LIBCMT:utility.obj
 0001:00009957       __onexit                   0040a957 f   LIBCMT:utility.obj
 0001:00009984       _atexit                    0040a984 f   LIBCMT:utility.obj
 0001:00009999       ??3@YAXPAXI@Z              0040a999 f   LIBCMT:delete_scalar_size.obj
 0001:000099a7       ??_Etype_info@@UAEPAXI@Z   0040a9a7 f i LIBCMT:std_type_info_static.obj
 0001:000099a7       ??_Gtype_info@@UAEPAXI@Z   0040a9a7 f i LIBCMT:std_type_info_static.obj
 0001:000099ca       ??2@YAPAXI@Z               0040a9ca f   LIBCMT:new_scalar.obj
 0001:000099fa       ??_L@YGXPAXIIP6EX0@Z1@Z    0040a9fa f   LIBCMT:ehvecctr.obj
 0001:00009a6e       ??_M@YGXPAXIIP6EX0@Z@Z     0040aa6e f   LIBCMT:ehvecdtr.obj
 0001:00009af3       ?__ArrayUnwind@@YGXPAXIIP6EX0@Z@Z 0040aaf3 f   LIBCMT:ehvecdtr.obj
 0001:00009b83       ___raise_securityfailure   0040ab83 f   LIBCMT:gs_report.obj
 0001:00009bab       ___report_gsfailure        0040abab f   LIBCMT:gs_report.obj
 0001:00009ca5       ___report_rangecheckfailure 0040aca5 f   LIBCMT:gs_report.obj
 0001:00009cb1       ___report_securityfailure  0040acb1 f   LIBCMT:gs_report.obj
 0001:00009d80       ??_V@YAXPAX@Z              0040ad80 f   LIBCMT:delete_array.obj
 0001:00009d85       ??_U@YAPAXI@Z              0040ad85 f   LIBCMT:new_array.obj
 0001:00009fcf       _WinMainCRTStartup         0040afcf f   LIBCMT:exe_winmain.obj
 0001:00009fd9       ___isa_available_init      0040afd9 f   LIBCMT:cpu_disp.obj
 0001:0000a1ad       __get_startup_argv_mode    0040b1ad f   LIBCMT:argv_mode.obj
 0001:0000a1b1       ___scrt_is_ucrt_dll_in_use 0040b1b1 f   LIBCMT:ucrt_detection.obj
 0001:0000a1bd       ___scrt_fastfail           0040b1bd f   LIBCMT:utility_desktop.obj
 0001:0000a2d8       ___scrt_get_show_window_mode 0040b2d8 f   LIBCMT:utility_desktop.obj
 0001:0000a309       ___scrt_initialize_mta     0040b309 f   LIBCMT:utility_desktop.obj
 0001:0000a30e       ___scrt_exe_initialize_mta 0040b30e f   LIBCMT:utility_desktop.obj
 0001:0000a30e       ___scrt_initialize_winrt   0040b30e f   LIBCMT:utility_desktop.obj
 0001:0000a30e       ___scrt_stub_for_initialize_mta 0040b30e f   LIBCMT:utility_desktop.obj
 0001:0000a30e       __get_startup_commit_mode  0040b30e f   LIBCMT:commit_mode.obj
 0001:0000a30e       __get_startup_new_mode     0040b30e f   LIBCMT:new_mode.obj
 0001:0000a30e       __get_startup_thread_locale_mode 0040b30e f   LIBCMT:thread_locale.obj
 0001:0000a30e       __matherr                  0040b30e f   LIBCMT:matherr.obj
 0001:0000a311       ___scrt_is_managed_app     0040b311 f   LIBCMT:utility_desktop.obj
 0001:0000a353       ___scrt_set_unhandled_exception_filter 0040b353 f   LIBCMT:utility_desktop.obj
 0001:0000a35f       ___scrt_unhandled_exception_filter@4 0040b35f f   LIBCMT:utility_desktop.obj
 0001:0000a3b5       __crt_debugger_hook        0040b3b5 f   LIBCMT:utility_desktop.obj
 0001:0000a3c0       __SEH_prolog4              0040b3c0 f   LIBCMT:sehprolg4.obj
 0001:0000a405       @_guard_check_icall_nop@4  0040b405 f i LIBCMT:guard_support.obj
 0001:0000a405       __initialize_denormal_control 0040b405 f i LIBCMT:denormal_control.obj
 0001:0000a405       __initialize_invalid_parameter_handler 0040b405 f i LIBCMT:invalid_parameter_handler.obj
 0001:0000a408       ??3@YAXPAX@Z               0040b408 f   LIBCMT:delete_scalar.obj
 0001:0000a40d       ?__scrt_throw_std_bad_alloc@@YAXXZ 0040b40d f   LIBCMT:throw_bad_alloc.obj
 0001:0000a477       ___security_init_cookie    0040b477 f   LIBCMT:gs_support.obj
 0001:0000a4c2       __get_startup_file_mode    0040b4c2 f   LIBCMT:file_mode.obj
 0001:0000a4c8       ?__scrt_initialize_type_info@@YAXXZ 0040b4c8 f   LIBCMT:tncleanup.obj
 0001:0000a4d4       ___acrt_uninitialize_command_line 0040b4d4 f   libucrt:argv_data.obj
 0001:0000a4d4       __should_initialize_environment 0040b4d4 f   LIBCMT:env_mode.obj
 0001:0000a4d7       __initialize_default_precision 0040b4d7 f   LIBCMT:default_precision.obj
 0001:0000a4f8       ___scrt_initialize_default_local_stdio_options 0040b4f8 f   LIBCMT:default_local_stdio_options.obj
 0001:0000a515       ___scrt_is_user_matherr_present 0040b515 f   LIBCMT:matherr_detection.obj
 0001:0000a521       ___scrt_get_dyn_tls_init_callback 0040b521 f   LIBCMT:dyn_tls_init.obj
 0001:0000a527       ___scrt_get_dyn_tls_dtor_callback 0040b527 f   LIBCMT:dyn_tls_dtor.obj
 0001:0000a52d       __RTC_Initialize           0040b52d f   LIBCMT:initsect.obj
 0001:0000a559       __RTC_Terminate            0040b559 f   LIBCMT:initsect.obj
 0001:0000a585       ?GetRangeOfTrysToCheck@__FrameHandler3@@SA?AU?$pair@Viterator@TryBlockMap@__FrameHandler3@@V123@@std@@AAVTryBlockMap@1@HPAXPBU_s_FuncInfo@@H@Z 0040b585 f   libvcruntime:trnsctrl.obj
 0001:0000a5f5       ?_CallCatchBlock2@@YAPAXPAUEHRegistrationNode@@PBU_s_FuncInfo@@PAXHK@Z 0040b5f5 f   libvcruntime:trnsctrl.obj
 0001:0000a652       ?_CallSETranslator@@YAHPAUEHExceptionRecord@@PAUEHRegistrationNode@@PAX2PBU_s_FuncInfo@@H1@Z 0040b652 f   libvcruntime:trnsctrl.obj
 0001:0000a748       ?_JumpToContinuation@@YGXPAXPAUEHRegistrationNode@@@Z 0040b748 f   libvcruntime:trnsctrl.obj
 0001:0000a778       ?_UnwindNestedFrames@@YGXPAUEHRegistrationNode@@PAUEHExceptionRecord@@@Z 0040b778 f   libvcruntime:trnsctrl.obj
 0001:0000a7cb       __CatchGuardHandler        0040b7cb f   libvcruntime:trnsctrl.obj
 0001:0000a7fc       __CreateFrameInfo          0040b7fc f   libvcruntime:trnsctrl.obj
 0001:0000a820       __FindAndUnlinkFrame       0040b820 f   libvcruntime:trnsctrl.obj
 0001:0000a868       __TranslatorGuardHandler   0040b868 f   libvcruntime:trnsctrl.obj
 0001:0000a905       ___CxxFrameHandler3        0040b905 f   libvcruntime:trnsctrl.obj
 0001:0000a93b       ___DestructExceptionObject 0040b93b f   libvcruntime:ehhelpers.obj
 0001:0000a9dc       ?_CallMemberFunction0@@YGXQAX0@Z 0040b9dc f i libvcruntime:ehhelpers.obj
 0001:0000aa41       __IsExceptionObjectToBeDestroyed 0040ba41 f   libvcruntime:ehhelpers.obj
 0001:0000aa67       ___AdjustPointer           0040ba67 f   libvcruntime:ehhelpers.obj
 0001:0000aa8c       ___FrameUnwindFilter       0040ba8c f   libvcruntime:ehhelpers.obj
 0001:0000aae2       ___current_exception       0040bae2 f   libvcruntime:ehhelpers.obj
 0001:0000aaeb       ___current_exception_context 0040baeb f   libvcruntime:ehhelpers.obj
 0001:0000aaf4       ___std_terminate           0040baf4 f   libvcruntime:ehhelpers.obj
 0001:0000aaf9       ___std_exception_copy      0040baf9 f   libvcruntime:std_exception.obj
 0001:0000ab5c       ___std_exception_destroy   0040bb5c f   libvcruntime:std_exception.obj
 0001:0000ab80       _strstr                    0040bb80 f   libvcruntime:strstr.obj
 0001:0000adf0       _strchr                    0040bdf0 f   libvcruntime:strchr.obj
 0001:0000ae5e       ___from_strstr_to_strchr   0040be5e     libvcruntime:strchr.obj
 0001:0000af1b       __CxxThrowException@8      0040bf1b f   libvcruntime:throw.obj
 0001:0000af87       ___vcrt_initialize         0040bf87 f   libvcruntime:initialization.obj
 0001:0000afa6       ___vcrt_uninitialize       0040bfa6 f   libvcruntime:initialization.obj
 0001:0000b000       __except_handler4          0040c000 f   libvcruntime:chandler4.obj
 0001:0000b160       _memset                    0040c160 f   libvcruntime:memset.obj
 0001:0000b2ba       ___std_type_info_compare   0040c2ba f   libvcruntime:std_type_info.obj
 0001:0000b2f6       ___vcrt_freefls@4          0040c2f6 f   libvcruntime:per_thread_data.obj
 0001:0000b312       ___vcrt_getptd             0040c312 f   libvcruntime:per_thread_data.obj
 0001:0000b320       ___vcrt_getptd_noexit      0040c320 f   libvcruntime:per_thread_data.obj
 0001:0000b3b2       ___vcrt_initialize_ptd     0040c3b2 f   libvcruntime:per_thread_data.obj
 0001:0000b3e5       ___vcrt_uninitialize_ptd   0040c3e5 f   libvcruntime:per_thread_data.obj
 0001:0000bb32       ??$TypeMatchHelper@V__FrameHandler3@@@@YAHPBU_s_HandlerType@@PBU_s_CatchableType@@PBU_s_ThrowInfo@@@Z 0040cb32 f i libvcruntime:frame.obj
 0001:0000bbc0       ??$__InternalCxxFrameHandler@V__FrameHandler3@@@@YA?AW4_EXCEPTION_DISPOSITION@@PAUEHExceptionRecord@@PAUEHRegistrationNode@@PAU_CONTEXT@@PAXPBU_s_FuncInfo@@H1E@Z 0040cbc0 f i libvcruntime:frame.obj
 0001:0000bcc2       ??$__InternalCxxFrameHandlerWrapper@V__FrameHandler3@@@@YA?AW4_EXCEPTION_DISPOSITION@@PAUEHExceptionRecord@@PAUEHRegistrationNode@@PAU_CONTEXT@@PAXPBU_s_FuncInfo@@H1E@Z 0040ccc2 f i libvcruntime:frame.obj
 0001:0000bccb       ??0bad_exception@std@@QAE@ABV01@@Z 0040cccb f i libvcruntime:frame.obj
 0001:0000bce6       ??0bad_exception@std@@QAE@XZ 0040cce6 f i libvcruntime:frame.obj
 0001:0000bcfe       ??8type_info@@QBE_NABV0@@Z 0040ccfe f i libvcruntime:frame.obj
 0001:0000bf75       ?FrameUnwindToEmptyState@__FrameHandler3@@SAXPAUEHRegistrationNode@@PAXPBU_s_FuncInfo@@@Z 0040cf75 f   libvcruntime:frame.obj
 0001:0000bf8d       ?FrameUnwindToState@__FrameHandler3@@SAXPAUEHRegistrationNode@@PAXPBU_s_FuncInfo@@H@Z 0040cf8d f   libvcruntime:frame.obj
 0001:0000c10f       ?_CallMemberFunction1@@YGXQAX00@Z 0040d10f f i libvcruntime:frame.obj
 0001:0000c11f       ?_CallMemberFunction2@@YGXQAX00H@Z 0040d11f f i libvcruntime:frame.obj
 0001:0000c132       ?getESTypes@__FrameHandler3@@SAPBU_s_ESTypeList@@PBU_s_FuncInfo@@@Z 0040d132 f i libvcruntime:frame.obj
 0001:0000c140       __CallSettingFrame@12      0040d140 f   libvcruntime:lowhelpr.obj
 0001:0000c167       __NLG_Return               0040d167     libvcruntime:lowhelpr.obj
 0001:0000c18c       ___except_validate_context_record 0040d18c f   libvcruntime:jbcxrval.obj
 0001:0000c1bc       ___vcrt_initialize_locks   0040d1bc f   libvcruntime:locks.obj
 0001:0000c1f8       ___vcrt_uninitialize_locks 0040d1f8 f   libvcruntime:locks.obj
 0001:0000c230       __local_unwind4            0040d230 f   libvcruntime:exsup4.obj
 0001:0000c320       @_EH4_CallFilterFunc@8     0040d320 f   libvcruntime:exsup4.obj
 0001:0000c340       @_EH4_TransferToHandler@8  0040d340 f   libvcruntime:exsup4.obj
 0001:0000c360       @_EH4_GlobalUnwind2@8      0040d360 f   libvcruntime:exsup4.obj
 0001:0000c380       @_EH4_LocalUnwind@16       0040d380 f   libvcruntime:exsup4.obj
 0001:0000c482       ___vcrt_FlsAlloc           0040d482 f   libvcruntime:winapi_downlevel.obj
 0001:0000c4bd       ___vcrt_FlsFree            0040d4bd f   libvcruntime:winapi_downlevel.obj
 0001:0000c4f8       ___vcrt_FlsGetValue        0040d4f8 f   libvcruntime:winapi_downlevel.obj
 0001:0000c533       ___vcrt_FlsSetValue        0040d533 f   libvcruntime:winapi_downlevel.obj
 0001:0000c571       ___vcrt_InitializeCriticalSectionEx 0040d571 f   libvcruntime:winapi_downlevel.obj
 0001:0000c5b8       _unexpected                0040d5b8 f   libvcruntime:unexpected.obj
 0001:0000c5d5       ?GetCurrentState@__FrameHandler3@@SAHPAUEHRegistrationNode@@PAXPBU_s_FuncInfo@@@Z 0040d5d5 f   libvcruntime:ehstate.obj
 0001:0000c5f2       ?SetState@__FrameHandler3@@SAXPAUEHRegistrationNode@@PBU_s_FuncInfo@@H@Z 0040d5f2 f   libvcruntime:ehstate.obj
 0001:0000c600       _memcpy                    0040d600 f   libvcruntime:memcpy.obj
 0001:0000c600       _memmove                   0040d600 f   libvcruntime:memmove.obj
 0001:0000cb80       __NLG_Notify1              0040db80 f   libvcruntime:exsup.obj
 0001:0000cb90       __NLG_Notify               0040db90 f   libvcruntime:exsup.obj
 0001:0000cba7       __NLG_Dispatch             0040dba7     libvcruntime:exsup.obj
 0001:0000cba7       __NLG_Dispatch2            0040dba7     libvcruntime:exsup.obj
 0001:0000cbb0       __NLG_Call                 0040dbb0 f   libvcruntime:exsup.obj
 0001:0000cbb2       __NLG_Return2              0040dbb2     libvcruntime:exsup.obj
 0001:0000cbc0       _rand                      0040dbc0 f   libucrt:rand.obj
 0001:0000cbe1       _strcpy_s                  0040dbe1 f   libucrt:strcpy_s.obj
 0001:0000cc3b       ??0__crt_cached_ptd_host@@QAE@QAU__crt_locale_pointers@@@Z 0040dc3b f i libucrt:invalid_parameter.obj
 0001:0000cc83       ??1__crt_cached_ptd_host@@QAE@XZ 0040dc83 f i libucrt:invalid_parameter.obj
 0001:0000ccbf       ?check_synchronize_global_state_index@__crt_cached_ptd_host@@AAEIXZ 0040dcbf f i libucrt:invalid_parameter.obj
 0001:0000cce8       ?force_synchronize_per_thread_data@__crt_cached_ptd_host@@AAEPAU__acrt_ptd@@XZ 0040dce8 f i libucrt:invalid_parameter.obj
 0001:0000cd2e       ?get_raw_ptd@__crt_cached_ptd_host@@QAEPAU__acrt_ptd@@XZ 0040dd2e f i libucrt:invalid_parameter.obj
 0001:0000cd4b       ___acrt_call_reportfault   0040dd4b f   libucrt:invalid_parameter.obj
 0001:0000ce84       ___acrt_initialize_invalid_parameter_handler 0040de84 f   libucrt:invalid_parameter.obj
 0001:0000ce93       __invalid_parameter        0040de93 f   libucrt:invalid_parameter.obj
 0001:0000ceca       __invalid_parameter_internal 0040deca f   libucrt:invalid_parameter.obj
 0001:0000cf47       __invalid_parameter_noinfo 0040df47 f   libucrt:invalid_parameter.obj
 0001:0000cf57       __invalid_parameter_noinfo_noreturn 0040df57 f   libucrt:invalid_parameter.obj
 0001:0000cf74       __invoke_watson            0040df74 f   libucrt:invalid_parameter.obj
 0001:0000d05f       _fopen_s                   0040e05f f   libucrt:fopen.obj
 0001:0000d0a6       _malloc                    0040e0a6 f   libucrt:malloc.obj
 0001:0000d1d6       _fclose                    0040e1d6 f   libucrt:fclose.obj
 0001:0000d206       __fread_nolock_s           0040e206 f   libucrt:fread.obj
 0001:0000d3ec       _fread                     0040e3ec f   libucrt:fread.obj
 0001:0000d409       _fread_s                   0040e409 f   libucrt:fread.obj
 0001:0000d527       _free                      0040e527 f   libucrt:free.obj
 0001:0000d542       ___acrt_strtok_s_novalidation 0040e542 f   libucrt:strtok_s.obj
 0001:0000d647       _strtok_s                  0040e647 f   libucrt:strtok_s.obj
 0001:0000d689       ??$is_overflow_condition@K@__crt_strtox@@YA_NIK@Z 0040e689 f i libucrt:atox.obj
 0001:0000d6ba       ??$is_overflow_condition@_K@__crt_strtox@@YA_NI_K@Z 0040e6ba f i libucrt:atox.obj
 0001:0000d6fb       ??$parse_integer@KV?$c_string_character_source@D@__crt_strtox@@$00@__crt_strtox@@YAKAAV__crt_cached_ptd_host@@V?$c_string_character_source@D@0@H_N@Z 0040e6fb f i libucrt:atox.obj
 0001:0000d942       ??$parse_integer@KV?$c_string_character_source@_W@__crt_strtox@@$00@__crt_strtox@@YAKAAV__crt_cached_ptd_host@@V?$c_string_character_source@_W@0@H_N@Z 0040e942 f i libucrt:atox.obj
 0001:0000df4c       ??$parse_integer@_KV?$c_string_character_source@D@__crt_strtox@@$00@__crt_strtox@@YA_KAAV__crt_cached_ptd_host@@V?$c_string_character_source@D@0@H_N@Z 0040ef4c f i libucrt:atox.obj
 0001:0000e214       ?unget@?$c_string_character_source@D@__crt_strtox@@QAEXD@Z 0040f214 f i libucrt:atox.obj
 0001:0000e23d       ?unget@?$c_string_character_source@_W@__crt_strtox@@QAEX_W@Z 0040f23d f i libucrt:atox.obj
 0001:0000e270       ?update_locale_slow@__crt_cached_ptd_host@@AAEXXZ 0040f270 f i libucrt:atox.obj
 0001:0000e2cb       ?validate@?$c_string_character_source@D@__crt_strtox@@QBE_NXZ 0040f2cb f i libucrt:atox.obj
 0001:0000e2cb       ?validate@?$c_string_character_source@_W@__crt_strtox@@QBE_NXZ 0040f2cb f i libucrt:atox.obj
 0001:0000e2e6       ___acrt_locale_get_ctype_array_value 0040f2e6 f i libucrt:atox.obj
 0001:0000e308       __ischartype_l             0040f308 f i libucrt:atox.obj
 0001:0000e35f       _atoi                      0040f35f f   libucrt:atox.obj
 0001:0000e725       ??$count@D@formatting_buffer@__crt_stdio_output@@QBEIXZ 0040f725 f i libucrt:output.obj
 0001:0000e73d       ??$ensure_buffer_is_big_enough@D@formatting_buffer@__crt_stdio_output@@QAE_NIAAV__crt_cached_ptd_host@@@Z 0040f73d f i libucrt:output.obj
 0001:0000e7be       ??$is_wide_character_specifier@D@__crt_stdio_output@@YA_N_KDW4length_modifier@0@@Z 0040f7be f i libucrt:output.obj
 0001:0000e7ef       ??$make_c_string_character_source@DPAPAD@__crt_strtox@@YA?AV?$c_string_character_source@D@0@QBDQAPAD@Z 0040f7ef f i libucrt:output.obj
 0001:0000e7ef       ??$make_c_string_character_source@_WPAPA_W@__crt_strtox@@YA?AV?$c_string_character_source@_W@0@QB_WQAPA_W@Z 0040f7ef f i libucrt:output.obj
 0001:0000e80a       ??$parse_integer@KV?$c_string_character_source@D@__crt_strtox@@$0A@@__crt_strtox@@YAKAAV__crt_cached_ptd_host@@V?$c_string_character_source@D@0@H_N@Z 0040f80a f i libucrt:output.obj
 0001:0000ea19       ??$scratch_data@D@formatting_buffer@__crt_stdio_output@@QAEPADXZ 0040fa19 f i libucrt:output.obj
 0001:0000ea37       ??$type_case_integer@$07@?$output_processor@DV?$string_output_adapter@D@__crt_stdio_output@@V?$format_validation_base@DV?$string_output_adapter@D@__crt_stdio_output@@@2@@__crt_stdio_output@@AAE_N_N@Z 0040fa37 f i libucrt:output.obj
 0001:0000ea37       ??$type_case_integer@$07@?$output_processor@DV?$string_output_adapter@D@__crt_stdio_output@@V?$standard_base@DV?$string_output_adapter@D@__crt_stdio_output@@@2@@__crt_stdio_output@@AAE_N_N@Z 0040fa37 f i libucrt:output.obj
 0001:0000ebb4       ??$type_case_integer@$09@?$output_processor@DV?$string_output_adapter@D@__crt_stdio_output@@V?$format_validation_base@DV?$string_output_adapter@D@__crt_stdio_output@@@2@@__crt_stdio_output@@AAE_N_N@Z 0040fbb4 f i libucrt:output.obj
 0001:0000ebb4       ??$type_case_integer@$09@?$output_processor@DV?$string_output_adapter@D@__crt_stdio_output@@V?$standard_base@DV?$string_output_adapter@D@__crt_stdio_output@@@2@@__crt_stdio_output@@AAE_N_N@Z 0040fbb4 f i libucrt:output.obj
 0001:0000ed31       ??$type_case_integer@$0BA@@?$output_processor@DV?$string_output_adapter@D@__crt_stdio_output@@V?$format_validation_base@DV?$string_output_adapter@D@__crt_stdio_output@@@2@@__crt_stdio_output@@AAE_N_N@Z 0040fd31 f i libucrt:output.obj
 0001:0000ed31       ??$type_case_integer@$0BA@@?$output_processor@DV?$string_output_adapter@D@__crt_stdio_output@@V?$standard_base@DV?$string_output_adapter@D@__crt_stdio_output@@@2@@__crt_stdio_output@@AAE_N_N@Z 0040fd31 f i libucrt:output.obj
 0001:0000eeae       ??$type_case_integer_parse_into_buffer@I$07@?$output_processor@DV?$string_output_adapter@D@__crt_stdio_output@@V?$format_validation_base@DV?$string_output_adapter@D@__crt_stdio_output@@@2@@__crt_stdio_output@@AAEXI_N@Z 0040feae f i libucrt:output.obj
 0001:0000eeae       ??$type_case_integer_parse_into_buffer@I$07@?$output_processor@DV?$string_output_adapter@D@__crt_stdio_output@@V?$standard_base@DV?$string_output_adapter@D@__crt_stdio_output@@@2@@__crt_stdio_output@@AAEXI_N@Z 0040feae f i libucrt:output.obj
 0001:0000ef18       ??$type_case_integer_parse_into_buffer@I$09@?$output_processor@DV?$string_output_adapter@D@__crt_stdio_output@@V?$format_validation_base@DV?$string_output_adapter@D@__crt_stdio_output@@@2@@__crt_stdio_output@@AAEXI_N@Z 0040ff18 f i libucrt:output.obj
 0001:0000ef18       ??$type_case_integer_parse_into_buffer@I$09@?$output_processor@DV?$string_output_adapter@D@__crt_stdio_output@@V?$standard_base@DV?$string_output_adapter@D@__crt_stdio_output@@@2@@__crt_stdio_output@@AAEXI_N@Z 0040ff18 f i libucrt:output.obj
 0001:0000ef92       ??$type_case_integer_parse_into_buffer@I$0BA@@?$output_processor@DV?$string_output_adapter@D@__crt_stdio_output@@V?$format_validation_base@DV?$string_output_adapter@D@__crt_stdio_output@@@2@@__crt_stdio_output@@AAEXI_N@Z 0040ff92 f i libucrt:output.obj
 0001:0000ef92       ??$type_case_integer_parse_into_buffer@I$0BA@@?$output_processor@DV?$string_output_adapter@D@__crt_stdio_output@@V?$standard_base@DV?$string_output_adapter@D@__crt_stdio_output@@@2@@__crt_stdio_output@@AAEXI_N@Z 0040ff92 f i libucrt:output.obj
 0001:0000f01a       ??$type_case_integer_parse_into_buffer@_K$07@?$output_processor@DV?$string_output_adapter@D@__crt_stdio_output@@V?$format_validation_base@DV?$string_output_adapter@D@__crt_stdio_output@@@2@@__crt_stdio_output@@AAEX_K_N@Z 0041001a f i libucrt:output.obj
 0001:0000f01a       ??$type_case_integer_parse_into_buffer@_K$07@?$output_processor@DV?$string_output_adapter@D@__crt_stdio_output@@V?$standard_base@DV?$string_output_adapter@D@__crt_stdio_output@@@2@@__crt_stdio_output@@AAEX_K_N@Z 0041001a f i libucrt:output.obj
 0001:0000f092       ??$type_case_integer_parse_into_buffer@_K$09@?$output_processor@DV?$string_output_adapter@D@__crt_stdio_output@@V?$format_validation_base@DV?$string_output_adapter@D@__crt_stdio_output@@@2@@__crt_stdio_output@@AAEX_K_N@Z 00410092 f i libucrt:output.obj
 0001:0000f092       ??$type_case_integer_parse_into_buffer@_K$09@?$output_processor@DV?$string_output_adapter@D@__crt_stdio_output@@V?$standard_base@DV?$string_output_adapter@D@__crt_stdio_output@@@2@@__crt_stdio_output@@AAEX_K_N@Z 00410092 f i libucrt:output.obj
 0001:0000f12e       ??$type_case_integer_parse_into_buffer@_K$0BA@@?$output_processor@DV?$string_output_adapter@D@__crt_stdio_output@@V?$format_validation_base@DV?$string_output_adapter@D@__crt_stdio_output@@@2@@__crt_stdio_output@@AAEX_K_N@Z 0041012e f i libucrt:output.obj
 0001:0000f12e       ??$type_case_integer_parse_into_buffer@_K$0BA@@?$output_processor@DV?$string_output_adapter@D@__crt_stdio_output@@V?$standard_base@DV?$string_output_adapter@D@__crt_stdio_output@@@2@@__crt_stdio_output@@AAEX_K_N@Z 0041012e f i libucrt:output.obj
 0001:0000f1c0       ??0?$output_adapter_data@DV?$string_output_adapter@D@__crt_stdio_output@@@__crt_stdio_output@@IAE@ABV?$string_output_adapter@D@1@_KQBDAAV__crt_cached_ptd_host@@QAD@Z 004101c0 f i libucrt:output.obj
 0001:0000f227       ??1formatting_buffer@__crt_stdio_output@@QAE@XZ 00410227 f i libucrt:output.obj
 0001:0000f241       ??4?$__crt_unique_heap_ptr@DU__crt_internal_free_policy@@@@QAEAAV0@$$QAV0@@Z 00410241 f i libucrt:output.obj
 0001:0000f265       ?crop_zeroes@__crt_stdio_output@@YAXPADQAU__crt_locale_pointers@@@Z 00410265 f i libucrt:output.obj
 0001:0000f2c5       ?find_next_state@?$output_processor@DV?$string_output_adapter@D@__crt_stdio_output@@V?$format_validation_base@DV?$string_output_adapter@D@__crt_stdio_output@@@2@@__crt_stdio_output@@ABE?AW4state@2@DW432@@Z 004102c5 f i libucrt:output.obj
 0001:0000f302       ?find_next_state@?$output_processor@DV?$string_output_adapter@D@__crt_stdio_output@@V?$standard_base@DV?$string_output_adapter@D@__crt_stdio_output@@@2@@__crt_stdio_output@@ABE?AW4state@2@DW432@@Z 00410302 f i libucrt:output.obj
 0001:0000f33d       ?force_decimal_point@__crt_stdio_output@@YAXPADQAU__crt_locale_pointers@@@Z 0041033d f i libucrt:output.obj
 0001:0000f399       ?parse_int_from_format_string@?$output_processor@DV?$string_output_adapter@D@__crt_stdio_output@@V?$format_validation_base@DV?$string_output_adapter@D@__crt_stdio_output@@@2@@__crt_stdio_output@@AAE_NQAH@Z 00410399 f i libucrt:output.obj
 0001:0000f399       ?parse_int_from_format_string@?$output_processor@DV?$string_output_adapter@D@__crt_stdio_output@@V?$standard_base@DV?$string_output_adapter@D@__crt_stdio_output@@@2@@__crt_stdio_output@@AAE_NQAH@Z 00410399 f i libucrt:output.obj
 0001:0000f411       ?process@?$output_processor@DV?$string_output_adapter@D@__crt_stdio_output@@V?$format_validation_base@DV?$string_output_adapter@D@__crt_stdio_output@@@2@@__crt_stdio_output@@QAEHXZ 00410411 f i libucrt:output.obj
 0001:0000f6f1       ?process@?$output_processor@DV?$string_output_adapter@D@__crt_stdio_output@@V?$standard_base@DV?$string_output_adapter@D@__crt_stdio_output@@@2@@__crt_stdio_output@@QAEHXZ 004106f1 f i libucrt:output.obj
 0001:0000f9c5       ?state_case_size@?$output_processor@DV?$string_output_adapter@D@__crt_stdio_output@@V?$format_validation_base@DV?$string_output_adapter@D@__crt_stdio_output@@@2@@__crt_stdio_output@@AAE_NXZ 004109c5 f i libucrt:output.obj
 0001:0000f9c5       ?state_case_size@?$output_processor@DV?$string_output_adapter@D@__crt_stdio_output@@V?$standard_base@DV?$string_output_adapter@D@__crt_stdio_output@@@2@@__crt_stdio_output@@AAE_NXZ 004109c5 f i libucrt:output.obj
 0001:0000fb23       ?state_case_type@?$output_processor@DV?$string_output_adapter@D@__crt_stdio_output@@V?$format_validation_base@DV?$string_output_adapter@D@__crt_stdio_output@@@2@@__crt_stdio_output@@AAE_NXZ 00410b23 f i libucrt:output.obj
 0001:0000fb23       ?state_case_type@?$output_processor@DV?$string_output_adapter@D@__crt_stdio_output@@V?$standard_base@DV?$string_output_adapter@D@__crt_stdio_output@@@2@@__crt_stdio_output@@AAE_NXZ 00410b23 f i libucrt:output.obj
 0001:0000feb1       ?to_integer_size@__crt_stdio_output@@YAIW4length_modifier@1@@Z 00410eb1 f i libucrt:output.obj
 0001:0000ff05       ?type_case_Z@?$output_processor@DV?$string_output_adapter@D@__crt_stdio_output@@V?$format_validation_base@DV?$string_output_adapter@D@__crt_stdio_output@@@2@@__crt_stdio_output@@AAE_NXZ 00410f05 f i libucrt:output.obj
 0001:0000ff05       ?type_case_Z@?$output_processor@DV?$string_output_adapter@D@__crt_stdio_output@@V?$standard_base@DV?$string_output_adapter@D@__crt_stdio_output@@@2@@__crt_stdio_output@@AAE_NXZ 00410f05 f i libucrt:output.obj
 0001:0000ff5f       ?type_case_a@?$output_processor@DV?$string_output_adapter@D@__crt_stdio_output@@V?$format_validation_base@DV?$string_output_adapter@D@__crt_stdio_output@@@2@@__crt_stdio_output@@AAE_NXZ 00410f5f f i libucrt:output.obj
 0001:0000ff5f       ?type_case_a@?$output_processor@DV?$string_output_adapter@D@__crt_stdio_output@@V?$standard_base@DV?$string_output_adapter@D@__crt_stdio_output@@@2@@__crt_stdio_output@@AAE_NXZ 00410f5f f i libucrt:output.obj
 0001:000100e9       ?type_case_c_tchar@?$output_processor@DV?$string_output_adapter@D@__crt_stdio_output@@V?$format_validation_base@DV?$string_output_adapter@D@__crt_stdio_output@@@2@@__crt_stdio_output@@AAE_ND@Z 004110e9 f i libucrt:output.obj
 0001:000100e9       ?type_case_c_tchar@?$output_processor@DV?$string_output_adapter@D@__crt_stdio_output@@V?$standard_base@DV?$string_output_adapter@D@__crt_stdio_output@@@2@@__crt_stdio_output@@AAE_ND@Z 004110e9 f i libucrt:output.obj
 0001:0001017e       ?type_case_n@?$output_processor@DV?$string_output_adapter@D@__crt_stdio_output@@V?$format_validation_base@DV?$string_output_adapter@D@__crt_stdio_output@@@2@@__crt_stdio_output@@AAE_NXZ 0041117e f i libucrt:output.obj
 0001:0001017e       ?type_case_n@?$output_processor@DV?$string_output_adapter@D@__crt_stdio_output@@V?$standard_base@DV?$string_output_adapter@D@__crt_stdio_output@@@2@@__crt_stdio_output@@AAE_NXZ 0041117e f i libucrt:output.obj
 0001:00010202       ?type_case_o@?$output_processor@DV?$string_output_adapter@D@__crt_stdio_output@@V?$format_validation_base@DV?$string_output_adapter@D@__crt_stdio_output@@@2@@__crt_stdio_output@@AAE_NXZ 00411202 f i libucrt:output.obj
 0001:00010202       ?type_case_o@?$output_processor@DV?$string_output_adapter@D@__crt_stdio_output@@V?$standard_base@DV?$string_output_adapter@D@__crt_stdio_output@@@2@@__crt_stdio_output@@AAE_NXZ 00411202 f i libucrt:output.obj
 0001:0001021f       ?type_case_p@?$output_processor@DV?$string_output_adapter@D@__crt_stdio_output@@V?$format_validation_base@DV?$string_output_adapter@D@__crt_stdio_output@@@2@@__crt_stdio_output@@AAE_NXZ 0041121f f i libucrt:output.obj
 0001:0001021f       ?type_case_p@?$output_processor@DV?$string_output_adapter@D@__crt_stdio_output@@V?$standard_base@DV?$string_output_adapter@D@__crt_stdio_output@@@2@@__crt_stdio_output@@AAE_NXZ 0041121f f i libucrt:output.obj
 0001:00010235       ?type_case_s@?$output_processor@DV?$string_output_adapter@D@__crt_stdio_output@@V?$format_validation_base@DV?$string_output_adapter@D@__crt_stdio_output@@@2@@__crt_stdio_output@@AAE_NXZ 00411235 f i libucrt:output.obj
 0001:00010235       ?type_case_s@?$output_processor@DV?$string_output_adapter@D@__crt_stdio_output@@V?$standard_base@DV?$string_output_adapter@D@__crt_stdio_output@@@2@@__crt_stdio_output@@AAE_NXZ 00411235 f i libucrt:output.obj
 0001:000102a6       ?validate@?$string_output_adapter@D@__crt_stdio_output@@QBE_NAAV__crt_cached_ptd_host@@@Z 004112a6 f i libucrt:output.obj
 0001:000102d7       ?write_string@?$string_output_adapter@D@__crt_stdio_output@@QBEXQBDHQAHAAV__crt_cached_ptd_host@@@Z 004112d7 f i libucrt:output.obj
 0001:0001033e       ___stdio_common_vsprintf   0041133e f   libucrt:output.obj
 0001:0001037f       ___stdio_common_vsprintf_s 0041137f f   libucrt:output.obj
 0001:00010477       _strncpy_s                 00411477 f   libucrt:strncpy_s.obj
 0001:00010482       _strtok                    00411482 f   libucrt:strtok.obj
 0001:000104a0       _isalnum                   004114a0 f   libucrt:_ctype.obj
 0001:00010530       _isalpha                   00411530 f   libucrt:_ctype.obj
 0001:000105c0       _isdigit                   004115c0 f   libucrt:_ctype.obj
 0001:00010650       _isspace                   00411650 f   libucrt:_ctype.obj
 0001:000106d4       ??$assemble_floating_point_snan@N@__crt_strtox@@YAX_NAAN@Z 004116d4 f i libucrt:atof.obj
 0001:000106f5       ??$assemble_floating_point_value_t@M@__crt_strtox@@YA?AW4SLD_STATUS@@_NH_KAAM@Z 004116f5 f i libucrt:atof.obj
 0001:00010725       ??$assemble_floating_point_value_t@N@__crt_strtox@@YA?AW4SLD_STATUS@@_NH_KAAN@Z 00411725 f i libucrt:atof.obj
 0001:000107cb       ??$convert_decimal_string_to_floating_type@M@__crt_strtox@@YA?AW4SLD_STATUS@@ABUfloating_point_string@0@AAM@Z 004117cb f i libucrt:atof.obj
 0001:000107ec       ??$convert_decimal_string_to_floating_type@N@__crt_strtox@@YA?AW4SLD_STATUS@@ABUfloating_point_string@0@AAN@Z 004117ec f i libucrt:atof.obj
 0001:0001080d       ??$convert_hexadecimal_string_to_floating_type@M@__crt_strtox@@YA?AW4SLD_STATUS@@ABUfloating_point_string@0@AAM@Z 0041180d f i libucrt:atof.obj
 0001:0001082e       ??$convert_hexadecimal_string_to_floating_type@N@__crt_strtox@@YA?AW4SLD_STATUS@@ABUfloating_point_string@0@AAN@Z 0041182e f i libucrt:atof.obj
 0001:0001084f       ??$parse_floating_point@V?$c_string_character_source@D@__crt_strtox@@N@__crt_strtox@@YA?AW4SLD_STATUS@@QAU__crt_locale_pointers@@V?$c_string_character_source@D@0@QAN@Z 0041184f f i libucrt:atof.obj
 0001:000108cf       ??$parse_floating_point_from_source@V?$c_string_character_source@D@__crt_strtox@@@__crt_strtox@@YA?AW4floating_point_parse_result@0@QAU__crt_locale_pointers@@AAV?$c_string_character_source@D@0@AAUfloating_point_string@0@@Z 004118cf f i libucrt:atof.obj
 0001:00010cc7       ??$parse_floating_point_possible_infinity@DV?$c_string_character_source@D@__crt_strtox@@PBD@__crt_strtox@@YA?AW4floating_point_parse_result@0@AADAAV?$c_string_character_source@D@0@PBD@Z 00411cc7 f i libucrt:atof.obj
 0001:00010d7a       ??$parse_floating_point_possible_nan@DV?$c_string_character_source@D@__crt_strtox@@PBD@__crt_strtox@@YA?AW4floating_point_parse_result@0@AADAAV?$c_string_character_source@D@0@PBD@Z 00411d7a f i libucrt:atof.obj
 0001:00010e7e       ??$parse_floating_point_possible_nan_is_ind@DV?$c_string_character_source@D@__crt_strtox@@@__crt_strtox@@YA_NAADAAV?$c_string_character_source@D@0@@Z 00411e7e f i libucrt:atof.obj
 0001:00010eba       ??$parse_floating_point_possible_nan_is_snan@DV?$c_string_character_source@D@__crt_strtox@@@__crt_strtox@@YA_NAADAAV?$c_string_character_source@D@0@@Z 00411eba f i libucrt:atof.obj
 0001:00010ef6       ??$parse_floating_point_write_result@M@__crt_strtox@@YA?AW4SLD_STATUS@@W4floating_point_parse_result@0@ABUfloating_point_string@0@QAM@Z 00411ef6 f i libucrt:atof.obj
 0001:00011062       ??$parse_floating_point_write_result@N@__crt_strtox@@YA?AW4SLD_STATUS@@W4floating_point_parse_result@0@ABUfloating_point_string@0@QAN@Z 00412062 f i libucrt:atof.obj
 0001:00011186       ??0_LocaleUpdate@@QAE@QAU__crt_locale_pointers@@@Z 00412186 f i libucrt:atof.obj
 0001:00011208       ??R<lambda_32aa245da1b5b882fa96db788295c8b2>@@QBE_NXZ 00412208 f i libucrt:atof.obj
 0001:00011208       ??R<lambda_690cf26ff5d754c94c32cf642e9f01bc>@@QBE_NXZ 00412208 f i libucrt:atof.obj
 0001:00011208       ??R<lambda_e51f7abad2595a5950d3223319845217>@@QBE_NXZ 00412208 f i libucrt:atof.obj
 0001:0001122e       ?as_double@floating_point_value@__crt_strtox@@QBEAANXZ 0041222e f i libucrt:atof.obj
 0001:00011253       ?as_float@floating_point_value@__crt_strtox@@QBEAAMXZ 00412253 f i libucrt:atof.obj
 0001:00011278       ?assemble_floating_point_infinity@__crt_strtox@@YAX_NABVfloating_point_value@1@@Z 00412278 f i libucrt:atof.obj
 0001:000112b8       ?assemble_floating_point_value@__crt_strtox@@YA?AW4SLD_STATUS@@_KH_N1ABVfloating_point_value@1@@Z 004122b8 f i libucrt:atof.obj
 0001:0001160b       ?assemble_floating_point_value_from_big_integer@__crt_strtox@@YA?AW4SLD_STATUS@@ABUbig_integer@1@I_N1ABVfloating_point_value@1@@Z 0041260b f i libucrt:atof.obj
 0001:0001179d       ?assemble_floating_point_zero@__crt_strtox@@YAX_NABVfloating_point_value@1@@Z 0041279d f i libucrt:atof.obj
 0001:000117d2       ?convert_decimal_string_to_floating_type_common@__crt_strtox@@YA?AW4SLD_STATUS@@ABUfloating_point_string@1@ABVfloating_point_value@1@@Z 004127d2 f i libucrt:atof.obj
 0001:000134f1       ?convert_hexadecimal_string_to_floating_type_common@__crt_strtox@@YA?AW4SLD_STATUS@@ABUfloating_point_string@1@ABVfloating_point_value@1@@Z 004144f1 f i libucrt:atof.obj
 0001:00013597       ?denormal_mantissa_mask@floating_point_value@__crt_strtox@@QBE_KXZ 00414597 f i libucrt:atof.obj
 0001:000135b0       ?divide@__crt_strtox@@YA_KAAUbig_integer@1@ABU21@@Z 004145b0 f i libucrt:atof.obj
 0001:00013a38       ?normal_mantissa_mask@floating_point_value@__crt_strtox@@QBE_KXZ 00414a38 f i libucrt:atof.obj
 0001:00013a4f       _atof                      00414a4f f   libucrt:atof.obj
 0001:00013b16       ??$make_input_adapter_character_source@V?$string_input_adapter@D@__crt_stdio_input@@@__crt_strtox@@YA?AV?$input_adapter_character_source@V?$string_input_adapter@D@__crt_stdio_input@@@0@QAV?$string_input_adapter@D@__crt_stdio_input@@_KQA_N@Z 00414b16 f i libucrt:input.obj
 0001:00013b34       ??$parse_floating_point@V?$input_adapter_character_source@V?$string_input_adapter@D@__crt_stdio_input@@@__crt_strtox@@M@__crt_strtox@@YA?AW4SLD_STATUS@@QAU__crt_locale_pointers@@V?$input_adapter_character_source@V?$string_input_adapter@D@__crt_stdio_input@@@0@QAM@Z 00414b34 f i libucrt:input.obj
 0001:00013bbe       ??$parse_floating_point@V?$input_adapter_character_source@V?$string_input_adapter@D@__crt_stdio_input@@@__crt_strtox@@N@__crt_strtox@@YA?AW4SLD_STATUS@@QAU__crt_locale_pointers@@V?$input_adapter_character_source@V?$string_input_adapter@D@__crt_stdio_input@@@0@QAN@Z 00414bbe f i libucrt:input.obj
 0001:00013c48       ??$parse_floating_point_from_source@V?$input_adapter_character_source@V?$string_input_adapter@D@__crt_stdio_input@@@__crt_strtox@@@__crt_strtox@@YA?AW4floating_point_parse_result@0@QAU__crt_locale_pointers@@AAV?$input_adapter_character_source@V?$string_input_adapter@D@__crt_stdio_input@@@0@AAUfloating_point_string@0@@Z 00414c48 f i libucrt:input.obj
 0001:00014093       ??$parse_floating_point_possible_infinity@DV?$input_adapter_character_source@V?$string_input_adapter@D@__crt_stdio_input@@@__crt_strtox@@_K@__crt_strtox@@YA?AW4floating_point_parse_result@0@AADAAV?$input_adapter_character_source@V?$string_input_adapter@D@__crt_stdio_input@@@0@_K@Z 00415093 f i libucrt:input.obj
 0001:00014152       ??$parse_floating_point_possible_nan@DV?$input_adapter_character_source@V?$string_input_adapter@D@__crt_stdio_input@@@__crt_strtox@@_K@__crt_strtox@@YA?AW4floating_point_parse_result@0@AADAAV?$input_adapter_character_source@V?$string_input_adapter@D@__crt_stdio_input@@@0@_K@Z 00415152 f i libucrt:input.obj
 0001:0001425a       ??$parse_floating_point_possible_nan_is_ind@DV?$input_adapter_character_source@V?$string_input_adapter@D@__crt_stdio_input@@@__crt_strtox@@@__crt_strtox@@YA_NAADAAV?$input_adapter_character_source@V?$string_input_adapter@D@__crt_stdio_input@@@0@@Z 0041525a f i libucrt:input.obj
 0001:00014294       ??$parse_floating_point_possible_nan_is_snan@DV?$input_adapter_character_source@V?$string_input_adapter@D@__crt_stdio_input@@@__crt_strtox@@@__crt_strtox@@YA_NAADAAV?$input_adapter_character_source@V?$string_input_adapter@D@__crt_stdio_input@@@0@@Z 00415294 f i libucrt:input.obj
 0001:000142ce       ??$parse_integer@_KV?$input_adapter_character_source@V?$string_input_adapter@D@__crt_stdio_input@@@__crt_strtox@@$00@__crt_strtox@@YA_KAAV__crt_cached_ptd_host@@V?$input_adapter_character_source@V?$string_input_adapter@D@__crt_stdio_input@@@0@H_N@Z 004152ce f i libucrt:input.obj
 0001:000145d2       ??$parse_integer@_KV?$input_adapter_character_source@V?$string_input_adapter@D@__crt_stdio_input@@@__crt_strtox@@@__crt_strtox@@YA_KQAU__crt_locale_pointers@@V?$input_adapter_character_source@V?$string_input_adapter@D@__crt_stdio_input@@@0@H_N@Z 004155d2 f i libucrt:input.obj
 0001:0001462e       ??$process_floating_point_specifier_t@M@?$input_processor@DV?$string_input_adapter@D@__crt_stdio_input@@@__crt_stdio_input@@AAE_NXZ 0041562e f i libucrt:input.obj
 0001:00014697       ??$process_floating_point_specifier_t@N@?$input_processor@DV?$string_input_adapter@D@__crt_stdio_input@@@__crt_stdio_input@@AAE_NXZ 00415697 f i libucrt:input.obj
 0001:00014700       ??$process_string_specifier_tchar@D@?$input_processor@DV?$string_input_adapter@D@__crt_stdio_input@@@__crt_stdio_input@@AAE_NW4conversion_mode@1@D@Z 00415700 f i libucrt:input.obj
 0001:00014862       ??$process_string_specifier_tchar@_W@?$input_processor@DV?$string_input_adapter@D@__crt_stdio_input@@@__crt_stdio_input@@AAE_NW4conversion_mode@1@_W@Z 00415862 f i libucrt:input.obj
 0001:000149d1       ??$skip_whitespace@Vstring_input_adapter@__crt_stdio_input@@D@__crt_stdio_input@@YAHAAV?$string_input_adapter@D@0@QAU__crt_locale_pointers@@@Z 004159d1 f i libucrt:input.obj
 0001:00014a00       ??$write_floating_point@M@?$input_processor@DV?$string_input_adapter@D@__crt_stdio_input@@@__crt_stdio_input@@AAE_NABM@Z 00415a00 f i libucrt:input.obj
 0001:00014a34       ??$write_floating_point@N@?$input_processor@DV?$string_input_adapter@D@__crt_stdio_input@@@__crt_stdio_input@@AAE_NABN@Z 00415a34 f i libucrt:input.obj
 0001:00014a6e       ??0?$format_string_parser@D@__crt_stdio_input@@QAE@_KQBE@Z 00415a6e f i libucrt:input.obj
 0001:00014ab8       ??0?$input_adapter_character_source@V?$string_input_adapter@D@__crt_stdio_input@@@__crt_strtox@@QAE@$$QAV01@@Z 00415ab8 f i libucrt:input.obj
 0001:00014af5       ??0?$input_adapter_character_source@V?$string_input_adapter@D@__crt_stdio_input@@@__crt_strtox@@QAE@QAV?$string_input_adapter@D@__crt_stdio_input@@_KQA_N@Z 00415af5 f i libucrt:input.obj
 0001:00014b26       ??0?$input_processor@DV?$string_input_adapter@D@__crt_stdio_input@@@__crt_stdio_input@@QAE@ABV?$string_input_adapter@D@1@_KQBDQAU__crt_locale_pointers@@QAD@Z 00415b26 f i libucrt:input.obj
 0001:00014b6a       ??R<lambda_644f8ab42ed3fd1d660977a2364b3a7d>@@QBE_NXZ 00415b6a f i libucrt:input.obj
 0001:00014b6a       ??R<lambda_f1fa4c266c18b246f3ed9c36247dab4f>@@QBE_NXZ 00415b6a f i libucrt:input.obj
 0001:00014b6a       ??R<lambda_f765c90ab33e8386abf09c0f079d37e9>@@QBE_NXZ 00415b6a f i libucrt:input.obj
 0001:00014b94       ?advance@?$format_string_parser@D@__crt_stdio_input@@QAE_NXZ 00415b94 f i libucrt:input.obj
 0001:00014cac       ?get@?$input_adapter_character_source@V?$string_input_adapter@D@__crt_stdio_input@@@__crt_strtox@@QAEDXZ 00415cac f i libucrt:input.obj
 0001:00014ce3       ?get@?$string_input_adapter@D@__crt_stdio_input@@QAEHXZ 00415ce3 f i libucrt:input.obj
 0001:00014cf9       ?is_character_allowed_in_string@?$input_processor@DV?$string_input_adapter@D@__crt_stdio_input@@@__crt_stdio_input@@ABE_NW4conversion_mode@2@H@Z 00415cf9 f i libucrt:input.obj
 0001:00014d49       ?length@?$format_string_parser@D@__crt_stdio_input@@QBEIXZ 00415d49 f i libucrt:input.obj
 0001:00014d8a       ?process@?$input_processor@DV?$string_input_adapter@D@__crt_stdio_input@@@__crt_stdio_input@@QAEHXZ 00415d8a f i libucrt:input.obj
 0001:00014e0e       ?process_character_count_specifier@?$input_processor@DV?$string_input_adapter@D@__crt_stdio_input@@@__crt_stdio_input@@AAE_NXZ 00415e0e f i libucrt:input.obj
 0001:00014e26       ?process_conversion_specifier@?$input_processor@DV?$string_input_adapter@D@__crt_stdio_input@@@__crt_stdio_input@@AAE_NXZ 00415e26 f i libucrt:input.obj
 0001:00014e9a       ?process_floating_point_specifier@?$input_processor@DV?$string_input_adapter@D@__crt_stdio_input@@@__crt_stdio_input@@AAE_NXZ 00415e9a f i libucrt:input.obj
 0001:00014eca       ?process_integer_specifier@?$input_processor@DV?$string_input_adapter@D@__crt_stdio_input@@@__crt_stdio_input@@AAE_NI_N@Z 00415eca f i libucrt:input.obj
 0001:00014f2f       ?process_literal_character@?$input_processor@DV?$string_input_adapter@D@__crt_stdio_input@@@__crt_stdio_input@@AAE_NXZ 00415f2f f i libucrt:input.obj
 0001:00014f65       ?process_literal_character_tchar@?$input_processor@DV?$string_input_adapter@D@__crt_stdio_input@@@__crt_stdio_input@@AAE_ND@Z 00415f65 f i libucrt:input.obj
 0001:00014fb3       ?process_state@?$input_processor@DV?$string_input_adapter@D@__crt_stdio_input@@@__crt_stdio_input@@AAE_NXZ 00415fb3 f i libucrt:input.obj
 0001:00014ff5       ?process_string_specifier@?$input_processor@DV?$string_input_adapter@D@__crt_stdio_input@@@__crt_stdio_input@@AAE_NW4conversion_mode@2@@Z 00415ff5 f i libucrt:input.obj
 0001:0001503d       ?process_whitespace@?$input_processor@DV?$string_input_adapter@D@__crt_stdio_input@@@__crt_stdio_input@@AAE_NXZ 0041603d f i libucrt:input.obj
 0001:0001505a       ?restore_state@?$input_adapter_character_source@V?$string_input_adapter@D@__crt_stdio_input@@@__crt_strtox@@QAE_N_K@Z 0041605a f i libucrt:input.obj
 0001:0001507f       ?scan_conversion_specifier@?$format_string_parser@D@__crt_stdio_input@@AAE_NXZ 0041607f f i libucrt:input.obj
 0001:000151ea       ?scan_optional_field_width@?$format_string_parser@D@__crt_stdio_input@@AAE_NXZ 004161ea f i libucrt:input.obj
 0001:0001527e       ?scan_optional_length_modifier@?$format_string_parser@D@__crt_stdio_input@@AAEXXZ 0041627e f i libucrt:input.obj
 0001:00015391       ?scan_optional_literal_character_trail_bytes_tchar@?$format_string_parser@D@__crt_stdio_input@@AAE_ND@Z 00416391 f i libucrt:input.obj
 0001:000153e3       ?scan_optional_wide_modifier@?$format_string_parser@D@__crt_stdio_input@@AAEXXZ 004163e3 f i libucrt:input.obj
 0001:00015401       ?scan_scanset_range@?$format_string_parser@D@__crt_stdio_input@@AAE_NXZ 00416401 f i libucrt:input.obj
 0001:00015542       ?set_wide_for_c_s_or_scanset@?$format_string_parser@D@__crt_stdio_input@@AAEXXZ 00416542 f i libucrt:input.obj
 0001:00015563       ?to_floating_point_length@__crt_stdio_input@@YAIW4length_modifier@1@@Z 00416563 f i libucrt:input.obj
 0001:00015586       ?to_integer_length@__crt_stdio_input@@YAIW4length_modifier@1@@Z 00416586 f i libucrt:input.obj
 0001:000155d9       ?unget@?$input_adapter_character_source@V?$string_input_adapter@D@__crt_stdio_input@@@__crt_strtox@@QAEXD@Z 004165d9 f i libucrt:input.obj
 0001:00015620       ?unget@?$string_input_adapter@D@__crt_stdio_input@@QAEXH@Z 00416620 f i libucrt:input.obj
 0001:0001563f       ?validate@?$format_string_parser@D@__crt_stdio_input@@QBE_NXZ 0041663f f i libucrt:input.obj
 0001:0001565b       ?validate@?$input_adapter_character_source@V?$string_input_adapter@D@__crt_stdio_input@@@__crt_strtox@@QBE_NXZ 0041665b f i libucrt:input.obj
 0001:0001567c       ?validate@?$string_input_adapter@D@__crt_stdio_input@@QAE_NXZ 0041667c f i libucrt:input.obj
 0001:0001569e       ?write_character@?$input_processor@DV?$string_input_adapter@D@__crt_stdio_input@@@__crt_stdio_input@@AAE_NQA_WIAAPA_WAAID@Z 0041669e f i libucrt:input.obj
 0001:0001570b       ?write_integer@?$input_processor@DV?$string_input_adapter@D@__crt_stdio_input@@@__crt_stdio_input@@AAE_N_K@Z 0041670b f i libucrt:input.obj
 0001:00015779       ___stdio_common_vsscanf    00416779 f   libucrt:input.obj
 0001:00015844       __fwrite_internal          00416844 f   libucrt:fwrite.obj
 0001:000158bb       __fwrite_nolock_internal   004168bb f   libucrt:fwrite.obj
 0001:00015a65       _fwrite                    00416a65 f   libucrt:fwrite.obj
 0001:00015a9f       ??$__acrt_convert_wcs_mbs_cp@D_WV<lambda_62f6974d9771e494a5ea317cc32e971c>@@U__crt_win32_buffer_internal_dynamic_resizing@@@@YAHQBDAAV?$__crt_win32_buffer@_WU__crt_win32_buffer_internal_dynamic_resizing@@@@ABV<lambda_62f6974d9771e494a5ea317cc32e971c>@@I@Z 00416a9f f i libucrt:rename.obj
 0001:00015b51       ??$__acrt_mbs_to_wcs_cp@U__crt_win32_buffer_internal_dynamic_resizing@@@@YAHQBDAAV?$__crt_win32_buffer@_WU__crt_win32_buffer_internal_dynamic_resizing@@@@I@Z 00416b51 f i libucrt:rename.obj
 0001:00015b6e       ?__acrt_get_utf8_acp_compatibility_codepage@@YAIXZ 00416b6e f i libucrt:rename.obj
 0001:00015bad       ?_deallocate@?$__crt_win32_buffer@DU__crt_win32_buffer_internal_dynamic_resizing@@@@AAEXXZ 00416bad f i libucrt:argv_wildcards.obj
 0001:00015bad       ?_deallocate@?$__crt_win32_buffer@_WU__crt_win32_buffer_internal_dynamic_resizing@@@@AAEXXZ 00416bad f i libucrt:rename.obj
 0001:00015bc7       ?allocate@?$__crt_win32_buffer@_WU__crt_win32_buffer_internal_dynamic_resizing@@@@QAEHI@Z 00416bc7 f i libucrt:rename.obj
 0001:00015c06       ?allocate@__crt_win32_buffer_internal_dynamic_resizing@@SAHQAPAXIABV__crt_win32_buffer_empty_debug_info@@@Z 00416c06 f i libucrt:rename.obj
 0001:00015c25       _rename                    00416c25 f   libucrt:rename.obj
 0001:00015cd3       _strtoul                   00416cd3 f   libucrt:strtox.obj
 0001:00015d19       _strtoull                  00416d19 f   libucrt:strtox.obj
 0001:00015d65       _wcstol                    00416d65 f   libucrt:strtox.obj
 0001:00015dab       __time64                   00416dab f   libucrt:time.obj
 0001:000160a2       __localtime64_s            004170a2 f   libucrt:localtime.obj
 0001:000160ad       ??$__crt_time_is_leap_year@H@@YA_NH@Z 004170ad f i libucrt:asctime.obj
 0001:0001627b       ?__crt_time_is_day_valid@@YA_NHHH@Z 0041727b f i libucrt:asctime.obj
 0001:000162be       _asctime_s                 004172be f   libucrt:asctime.obj
 0001:000162c9       __seh_filter_exe           004172c9 f   libucrt:exception_filter.obj
 0001:0001645c       ??$__crt_fast_encode_pointer@P6AHPAU_exception@@@Z@@YAP6AHPAU_exception@@@ZQ6AH0@Z@Z 0041745c f i libucrt:matherr.obj
 0001:0001645c       ??$__crt_fast_encode_pointer@P6AHXZ@@YAP6AHXZQ6AHXZ@Z 0041745c f i libucrt:onexit.obj
 0001:0001645c       ??$__crt_fast_encode_pointer@P6GXPAXK0@Z@@YAP6GXPAXK0@ZQ6GX0K0@Z@Z 0041745c f i libucrt:exit.obj
 0001:0001645c       ??$__crt_fast_encode_pointer@PAP6AXXZ@@YAPAP6AXXZQAP6AXXZ@Z 0041745c f i libucrt:onexit.obj
 0001:0001645c       ??$__crt_fast_encode_pointer@PAX@@YAPAXQAX@Z 0041745c f i libucrt:initialization.obj
 0001:00016715       ___acrt_initialize_thread_local_exit_callback 00417715 f   libucrt:exit.obj
 0001:00016724       __c_exit                   00417724 f   libucrt:exit.obj
 0001:00016733       __cexit                    00417733 f   libucrt:exit.obj
 0001:00016742       __exit                     00417742 f   libucrt:exit.obj
 0001:00016758       __register_thread_local_exe_atexit_callback 00417758 f   libucrt:exit.obj
 0001:0001677e       _exit                      0041777e f   libucrt:exit.obj
 0001:00016a45       ___acrt_allocate_buffer_for_argv 00417a45 f   libucrt:argv_parsing.obj
 0001:00016a94       __configure_narrow_argv    00417a94 f   libucrt:argv_parsing.obj
 0001:00016e60       ___dcrt_get_or_create_wide_environment_nolock 00417e60 f   libucrt:environment_initialization.obj
 0001:00016e65       ___dcrt_uninitialize_environments_nolock 00417e65 f   libucrt:environment_initialization.obj
 0001:00016eb6       __initialize_narrow_environment 00417eb6 f   libucrt:environment_initialization.obj
 0001:0001714d       __crt_atexit               0041814d f   libucrt:onexit.obj
 0001:00017163       __execute_onexit_table     00418163 f   libucrt:onexit.obj
 0001:000171a1       __initialize_onexit_table  004181a1 f   libucrt:onexit.obj
 0001:000171ca       __register_onexit_function 004181ca f   libucrt:onexit.obj
 0001:000172f8       ___acrt_initialize         004182f8 f   libucrt:initialization.obj
 0001:0001730a       ___acrt_uninitialize       0041830a f   libucrt:initialization.obj
 0001:0001733a       ___acrt_initialize_new_handler 0041833a f   libucrt:new_handler.obj
 0001:00017349       __callnewh                 00418349 f   libucrt:new_handler.obj
 0001:00017376       __query_new_handler        00418376 f   libucrt:new_handler.obj
 0001:000173d2       _terminate                 004183d2 f   libucrt:terminate.obj
 0001:0001740e       __query_app_type           0041840e f   libucrt:report_runtime_error.obj
 0001:00017414       __set_app_type             00418414 f   libucrt:report_runtime_error.obj
 0001:00017423       ___acrt_has_user_matherr   00418423 f   libucrt:matherr.obj
 0001:0001743b       ___acrt_initialize_user_matherr 0041843b f   libucrt:matherr.obj
 0001:0001744a       ___acrt_invoke_user_matherr 0041844a f   libucrt:matherr.obj
 0001:0001747c       ___setusermatherr          0041847c f   libucrt:matherr.obj
 0001:00017491       __get_narrow_winmain_command_line 00418491 f   libucrt:argv_winmain.obj
 0001:000174e4       __initterm                 004184e4 f   libucrt:initterm.obj
 0001:0001750f       __initterm_e               0041850f f   libucrt:initterm.obj
 0001:0001753d       __get_fmode                0041853d f   libucrt:setmode.obj
 0001:0001756a       __set_fmode                0041856a f   libucrt:setmode.obj
 0001:000175a7       __setmode_nolock           004185a7 f   libucrt:setmode.obj
 0001:000176e4       ___acrt_set_locale_changed 004186e4 f   libucrt:wsetlocale.obj
 0001:000176ef       ___acrt_uninitialize_locale 004186ef f   libucrt:wsetlocale.obj
 0001:00017716       __configthreadlocale       00418716 f   libucrt:wsetlocale.obj
 0001:00017778       __query_new_mode           00418778 f   libucrt:new_mode.obj
 0001:0001777f       __set_new_mode             0041877f f   libucrt:new_mode.obj
 0001:000177ae       ___p__commode              004187ae f   libucrt:ncommode.obj
 0001:000177b4       __controlfp_s              004187b4 f   libucrt:contrlfp.obj
 0001:00017813       _abort                     00418813 f   libucrt:abort.obj
 0001:00017857       _calloc                    00418857 f   libucrt:calloc.obj
 0001:00017870       _strncmp                   00418870 f   libucrt:strncmp.obj
 0001:000178e8       _wcsncmp                   004188e8 f   libucrt:wcsncmp.obj
 0001:00017c60       ___acrt_getptd             00418c60 f   libucrt:per_thread_data.obj
 0001:00017d1b       ___acrt_getptd_head        00418d1b f   libucrt:per_thread_data.obj
 0001:00017db1       ___acrt_getptd_noexit      00418db1 f   libucrt:per_thread_data.obj
 0001:00017e62       ___acrt_getptd_noexit_explicit 00418e62 f   libucrt:per_thread_data.obj
 0001:00017f05       ___acrt_initialize_ptd     00418f05 f   libucrt:per_thread_data.obj
 0001:00017f31       ___acrt_uninitialize_ptd   00418f31 f   libucrt:per_thread_data.obj
 0001:00017f4b       ___acrt_errno_from_os_error 00418f4b f   libucrt:errno.obj
 0001:00017f8e       ___acrt_errno_map_os_error 00418f8e f   libucrt:errno.obj
 0001:00017fb1       ___acrt_errno_map_os_error_ptd 00418fb1 f   libucrt:errno.obj
 0001:00017fd5       ___doserrno                00418fd5 f   libucrt:errno.obj
 0001:00017fe8       __errno                    00418fe8 f   libucrt:errno.obj
 0001:00017ffb       ___acrt_initialize_stdio   00418ffb f   libucrt:_file.obj
 0001:000180c3       ___acrt_iob_func           004190c3 f   libucrt:_file.obj
 0001:000180d3       ___acrt_uninitialize_stdio 004190d3 f   libucrt:_file.obj
 0001:0001811f       __lock_file                0041911f f   libucrt:_file.obj
 0001:00018133       __unlock_file              00419133 f   libucrt:_file.obj
 0001:00018147       ?__acrt_stdio_allocate_stream@@YA?AV__crt_stdio_stream@@XZ 00419147 f   libucrt:stream.obj
 0001:000181b0       ?__acrt_stdio_free_stream@@YAXV__crt_stdio_stream@@@Z 004191b0 f   libucrt:stream.obj
 0001:000182ad       ??$__acrt_stdio_parse_mode@D@@YA?AU__acrt_stdio_stream_mode@@QBD@Z 004192ad f i libucrt:openfile.obj
 0001:0001855a       ?__acrt_stdio_parse_mode_D@@YA_NAAU__acrt_stdio_stream_mode@@@Z 0041955a f i libucrt:openfile.obj
 0001:00018575       ?__acrt_stdio_parse_mode_T@@YA_NAAU__acrt_stdio_stream_mode@@@Z 00419575 f i libucrt:openfile.obj
 0001:00018594       ?__acrt_stdio_parse_mode_b@@YA_NAAU__acrt_stdio_stream_mode@@@Z 00419594 f i libucrt:openfile.obj
 0001:000185b4       ?__acrt_stdio_parse_mode_c@@YA_NAAU__acrt_stdio_stream_mode@@AA_N@Z 004195b4 f i libucrt:openfile.obj
 0001:000185d6       ?__acrt_stdio_parse_mode_n@@YA_NAAU__acrt_stdio_stream_mode@@AA_N@Z 004195d6 f i libucrt:openfile.obj
 0001:000185f8       ?__acrt_stdio_parse_mode_plus@@YA_NAAU__acrt_stdio_stream_mode@@AA_N@Z 004195f8 f i libucrt:openfile.obj
 0001:0001862e       ?__acrt_stdio_parse_mode_t@@YA_NAAU__acrt_stdio_stream_mode@@@Z 0041962e f i libucrt:openfile.obj
 0001:0001864e       ?__acrt_stdio_parse_mode_x@@YA_NAAU__acrt_stdio_stream_mode@@@Z 0041964e f i libucrt:openfile.obj
 0001:0001866e       __openfile                 0041966e f   libucrt:openfile.obj
 0001:00018679       __malloc_base              00419679 f   libucrt:malloc_base.obj
 0001:000186c7       __free_base                004196c7 f   libucrt:free_base.obj
 0001:00018701       __fileno                   00419701 f   libucrt:fileno.obj
 0001:000187b9       __close_internal           004197b9 f   libucrt:close.obj
 0001:0001885c       __close_nolock             0041985c f   libucrt:close.obj
 0001:0001888c       __close_nolock_internal    0041988c f   libucrt:close.obj
 0001:0001892c       ___acrt_stdio_free_buffer_nolock 0041992c f   libucrt:_freebuf.obj
 0001:00018b49       ___acrt_stdio_flush_nolock 00419b49 f   libucrt:fflush.obj
 0001:00018bb2       __fflush_nolock            00419bb2 f   libucrt:fflush.obj
 0001:00018c17       __flushall                 00419c17 f   libucrt:fflush.obj
 0001:000190e6       __read                     0041a0e6 f   libucrt:read.obj
 0001:000191fa       __read_nolock              0041a1fa f   libucrt:read.obj
 0001:00019728       ___acrt_stdio_refill_and_read_narrow_nolock 0041a728 f   libucrt:_filbuf.obj
 0001:00019733       ___pctype_func             0041a733 f   libucrt:ctype.obj
 0001:00019757       _iswctype                  0041a757 f   libucrt:iswctype.obj
 0001:000197c0       __isctype_l                0041a7c0 f   libucrt:isctype.obj
 0001:0001988b       ___acrt_update_locale_info 0041a88b f   libucrt:locale_update.obj
 0001:000198b8       ___acrt_update_locale_info_explicit 0041a8b8 f   libucrt:locale_update.obj
 0001:000198e9       ___acrt_update_multibyte_info 0041a8e9 f   libucrt:locale_update.obj
 0001:00019916       ___acrt_update_multibyte_info_explicit 0041a916 f   libucrt:locale_update.obj
 0001:00019947       _strnlen                   0041a947 f   libucrt:strnlen.obj
 0001:00019a69       _wcsnlen                   0041aa69 f   libucrt:strnlen.obj
 0001:00019c19       ?__acrt_fp_classify@@YA?AW4__acrt_fp_class@@ABN@Z 0041ac19 f i libucrt:cvt.obj
 0001:0001a5e2       ___acrt_fp_format          0041b5e2 f   libucrt:cvt.obj
 0001:0001a763       __wctomb_internal          0041b763 f   libucrt:wctomb.obj
 0001:0001a8cd       __mbtowc_internal          0041b8cd f   libucrt:mbtowc.obj
 0001:0001aa00       __mbtowc_l                 0041ba00 f   libucrt:mbtowc.obj
 0001:0001aa38       __get_printf_count_output  0041ba38 f   libucrt:printf_count_output.obj
 0001:0001aa4d       ___acrt_should_use_temporary_buffer 0041ba4d f   libucrt:_sftbuf.obj
 0001:0001aa88       ___acrt_stdio_begin_temporary_buffering_nolock 0041ba88 f   libucrt:_sftbuf.obj
 0001:0001ab34       ___acrt_stdio_end_temporary_buffering_nolock 0041bb34 f   libucrt:_sftbuf.obj
 0001:0001acd8       ___acrt_initialize_lowio   0041bcd8 f   libucrt:ioinit.obj
 0001:0001ad38       ___acrt_uninitialize_lowio 0041bd38 f   libucrt:ioinit.obj
 0001:0001ad64       _fegetround                0041bd64 f   libucrt:fegetround.obj
 0001:0001ad71       __calloc_base              0041bd71 f   libucrt:calloc_base.obj
 0001:0001b57c       __write                    0041c57c f   libucrt:write.obj
 0001:0001b5b3       __write_internal           0041c5b3 f   libucrt:write.obj
 0001:0001b6bb       __write_nolock             0041c6bb f   libucrt:write.obj
 0001:0001bb08       ___acrt_stdio_flush_and_write_narrow_nolock 0041cb08 f   libucrt:_flsbuf.obj
 0001:0001bb13       ___acrt_MultiByteToWideChar 0041cb13 f   libucrt:multibytetowidechar.obj
 0001:0001bd45       ___acrt_AppPolicyGetProcessTerminationMethodInternal@4 0041cd45 f   libucrt:winapi_thunks.obj
 0001:0001bd85       ___acrt_AreFileApisANSI@0  0041cd85 f   libucrt:winapi_thunks.obj
 0001:0001bda4       ___acrt_CompareStringEx@36 0041cda4 f   libucrt:winapi_thunks.obj
 0001:0001be01       ___acrt_FlsAlloc@4         0041ce01 f   libucrt:winapi_thunks.obj
 0001:0001be40       ___acrt_FlsFree@4          0041ce40 f   libucrt:winapi_thunks.obj
 0001:0001be7f       ___acrt_FlsGetValue@4      0041ce7f f   libucrt:winapi_thunks.obj
 0001:0001bebe       ___acrt_FlsSetValue@8      0041cebe f   libucrt:winapi_thunks.obj
 0001:0001bf00       ___acrt_InitializeCriticalSectionEx@12 0041cf00 f   libucrt:winapi_thunks.obj
 0001:0001bf4b       ___acrt_LCMapStringEx@36   0041cf4b f   libucrt:winapi_thunks.obj
 0001:0001bfa8       ___acrt_LocaleNameToLCID@8 0041cfa8 f   libucrt:winapi_thunks.obj
 0001:0001bfd9       ___acrt_initialize_winapi_thunks 0041cfd9 f   libucrt:winapi_thunks.obj
 0001:0001bfed       ___acrt_uninitialize_winapi_thunks 0041cfed f   libucrt:winapi_thunks.obj
 0001:0001c023       __wrename                  0041d023 f   libucrt:wrename.obj
 0001:0001c050       ___acrt_initialize_timeset 0041d050 f   libucrt:timeset.obj
 0001:0001c085       ___daylight                0041d085 f   libucrt:timeset.obj
 0001:0001c08b       ___dstbias                 0041d08b f   libucrt:timeset.obj
 0001:0001c091       ___timezone                0041d091 f   libucrt:timeset.obj
 0001:0001c097       ___tzname                  0041d097 f   libucrt:timeset.obj
 0001:0001c09d       ___wide_tzname             0041d09d f   libucrt:timeset.obj
 0001:0001c0a3       __get_daylight             0041d0a3 f   libucrt:timeset.obj
 0001:0001c0cf       __get_dstbias              0041d0cf f   libucrt:timeset.obj
 0001:0001c0fb       __get_timezone             0041d0fb f   libucrt:timeset.obj
 0001:0001c127       ??$__crt_time_elapsed_leap_years@H@@YAHH@Z 0041d127 f i libucrt:gmtime.obj
 0001:0001c364       __gmtime64_s               0041d364 f   libucrt:gmtime.obj
 0001:0001cc2b       ___tzset                   0041dc2b f   libucrt:tzset.obj
 0001:0001cc88       __isindst                  0041dc88 f   libucrt:tzset.obj
 0001:0001ccdc       ___acrt_initialize_locks   0041dcdc f   libucrt:locks.obj
 0001:0001cd1d       ___acrt_lock               0041dd1d f   libucrt:locks.obj
 0001:0001cd34       ___acrt_uninitialize_locks 0041dd34 f   libucrt:locks.obj
 0001:0001cd65       ___acrt_unlock             0041dd65 f   libucrt:locks.obj
 0001:0001cd7c       ___acrt_get_process_end_policy 0041dd7c f   libucrt:win_policies.obj
 0001:0001cdc5       ??$__acrt_convert_wcs_mbs_cp@_WDV<lambda_28bda7af82a03b66c1cb3803a755f95d>@@U__crt_win32_buffer_internal_dynamic_resizing@@@@YAHQB_WAAV?$__crt_win32_buffer@DU__crt_win32_buffer_internal_dynamic_resizing@@@@ABV<lambda_28bda7af82a03b66c1cb3803a755f95d>@@I@Z 0041ddc5 f i libucrt:argv_wildcards.obj
 0001:0001d367       ??R<lambda_0fec1a7b3f42a53036604e18c2d5e07e>@@QBEHIQB_WQADI@Z 0041e367 f i libucrt:getmodulefilenamea.obj
 0001:0001d367       ??R<lambda_28bda7af82a03b66c1cb3803a755f95d>@@QBEHIQB_WQADI@Z 0041e367 f i libucrt:argv_wildcards.obj
 0001:0001d38b       ?allocate@?$__crt_win32_buffer@DU__crt_win32_buffer_internal_dynamic_resizing@@@@QAEHI@Z 0041e38b f i libucrt:argv_wildcards.obj
 0001:0001d44e       ___acrt_expand_narrow_argv_wildcards 0041e44e f   libucrt:argv_wildcards.obj
 0001:0001d459       ??$__acrt_convert_wcs_mbs_cp@_WDV<lambda_0fec1a7b3f42a53036604e18c2d5e07e>@@U__crt_win32_buffer_no_resizing@@@@YAHQB_WAAV?$__crt_win32_buffer@DU__crt_win32_buffer_no_resizing@@@@ABV<lambda_0fec1a7b3f42a53036604e18c2d5e07e>@@I@Z 0041e459 f i libucrt:getmodulefilenamea.obj
 0001:0001d51b       ?allocate@?$__crt_win32_buffer@DU__crt_win32_buffer_no_resizing@@@@QAEHI@Z 0041e51b f i libucrt:getmodulefilenamea.obj
 0001:0001d542       ?set_to_nullptr@?$__crt_win32_buffer@DU__crt_win32_buffer_no_resizing@@@@QAEXXZ 0041e542 f i libucrt:getmodulefilenamea.obj
 0001:0001d556       ___acrt_GetModuleFileNameA 0041e556 f   libucrt:getmodulefilenamea.obj
 0001:0001db7a       ___acrt_initialize_multibyte 0041eb7a f   libucrt:mbctype.obj
 0001:0001dbc2       ___acrt_update_thread_multibyte_data 0041ebc2 f   libucrt:mbctype.obj
 0001:0001dbd5       __setmbcp_nolock           0041ebd5 f   libucrt:mbctype.obj
 0001:0001de2d       __ismbblead                0041ee2d f   libucrt:ismbbyte.obj
 0001:0001de45       ___acrt_initialize_command_line 0041ee45 f   libucrt:argv_data.obj
 0001:0001de5e       _wcscpy_s                  0041ee5e f   libucrt:wcscpy_s.obj
 0001:0001dec2       ___acrt_WideCharToMultiByte 0041eec2 f   libucrt:widechartomultibyte.obj
 0001:0001dfb0       ___dcrt_get_narrow_environment_from_os 0041efb0 f   libucrt:get_environment_from_os.obj
 0001:0001e050       ___dcrt_get_wide_environment_from_os 0041f050 f   libucrt:get_environment_from_os.obj
 0001:0001e44d       ___dcrt_set_variable_in_wide_environment_nolock 0041f44d f   libucrt:setenv.obj
 0001:0001e458       __recalloc_base            0041f458 f   libucrt:recalloc.obj
 0001:0001e4c5       ___acrt_initialize_heap    0041f4c5 f   libucrt:heap_handle.obj
 0001:0001e4d6       ___acrt_uninitialize_heap  0041f4d6 f   libucrt:heap_handle.obj
 0001:0001e4e0       ___acrt_execute_initializers 0041f4e0 f   libucrt:shared_initialization.obj
 0001:0001e548       ___acrt_execute_uninitializers 0041f548 f   libucrt:shared_initialization.obj
 0001:0001e647       ___acrt_get_sigabrt_handler 0041f647 f   libucrt:signal.obj
 0001:0001e66e       ___acrt_initialize_signal_handlers 0041f66e f   libucrt:signal.obj
 0001:0001e68c       _raise                     0041f68c f   libucrt:signal.obj
 0001:0001e94d       _wcsncpy_s                 0041f94d f   libucrt:wcsncpy_s.obj
 0001:0001e958       ___acrt_lowio_create_handle_array 0041f958 f   libucrt:osfinfo.obj
 0001:0001e9d3       ___acrt_lowio_destroy_handle_array 0041f9d3 f   libucrt:osfinfo.obj
 0001:0001ea08       ___acrt_lowio_ensure_fh_exists 0041fa08 f   libucrt:osfinfo.obj
 0001:0001eaa6       ___acrt_lowio_lock_fh      0041faa6 f   libucrt:osfinfo.obj
 0001:0001eac9       ___acrt_lowio_set_os_handle 0041fac9 f   libucrt:osfinfo.obj
 0001:0001eb5b       ___acrt_lowio_unlock_fh    0041fb5b f   libucrt:osfinfo.obj
 0001:0001eb7e       __alloc_osfhnd             0041fb7e f   libucrt:osfinfo.obj
 0001:0001ec91       __free_osfhnd              0041fc91 f   libucrt:osfinfo.obj
 0001:0001ed22       __get_osfhandle            0041fd22 f   libucrt:osfinfo.obj
 0001:0001ed8c       ___acrt_initialize_fmode   0041fd8c f   libucrt:txtmode.obj
 0001:0001eda2       ____lc_codepage_func       0041fda2 f   libucrt:initctype.obj
 0001:0001edc7       ___acrt_locale_free_monetary 0041fdc7 f   libucrt:initmon.obj
 0001:0001eec5       ___acrt_locale_free_numeric 0041fec5 f   libucrt:initnum.obj
 0001:0001ef53       ___acrt_locale_free_time   0041ff53 f   libucrt:inittime.obj
 0001:0001f037       ___acrt_GetStringTypeA     00420037 f   libucrt:getstringtypea.obj
 0001:0001f140       __freea_crt                00420140 f i libucrt:getstringtypea.obj
 0001:0001f160       ___acrt_add_locale_ref     00420160 f   libucrt:locale_refcounting.obj
 0001:0001f1dd       ___acrt_free_locale        004201dd f   libucrt:locale_refcounting.obj
 0001:0001f325       ___acrt_locale_add_lc_time_reference 00420325 f   libucrt:locale_refcounting.obj
 0001:0001f34e       ___acrt_locale_free_lc_time_if_unreferenced 0042034e f   libucrt:locale_refcounting.obj
 0001:0001f37f       ___acrt_locale_release_lc_time_reference 0042037f f   libucrt:locale_refcounting.obj
 0001:0001f3a8       ___acrt_release_locale_ref 004203a8 f   libucrt:locale_refcounting.obj
 0001:0001f429       ___acrt_update_thread_locale_data 00420429 f   libucrt:locale_refcounting.obj
 0001:0001f4aa       __updatetlocinfoEx_nolock  004204aa f   libucrt:locale_refcounting.obj
 0001:0001f5a1       __clearfp                  004205a1 f   libucrt:ieee87.obj
 0001:0001f67f       __control87                0042067f f   libucrt:ieee87.obj
 0001:0001fa1e       __fcloseall                00420a1e f   libucrt:closeall.obj
 0001:0001fac9       ___ascii_wcsnicmp          00420ac9 f   libucrt:wcsnicmp.obj
 0001:0001fb18       __strnicmp                 00420b18 f   libucrt:strnicmp.obj
 0001:0001fb85       __strnicmp_l               00420b85 f   libucrt:strnicmp.obj
 0001:00020218       __sopen_nolock             00421218 f   libucrt:open.obj
 0001:00020286       __sopen_s                  00421286 f   libucrt:open.obj
 0001:000202a6       __wsopen_nolock            004212a6 f   libucrt:open.obj
 0001:00020672       __commit                   00421672 f   libucrt:commit.obj
 0001:000206ef       __isatty                   004216ef f   libucrt:isatty.obj
 0001:000208ee       __lseeki64                 004218ee f   libucrt:lseek.obj
 0001:0002092e       __lseeki64_nolock          0042192e f   libucrt:lseek.obj
 0001:0002096e       __lseeki64_nolock_internal 0042196e f   libucrt:lseek.obj
 0001:0002098c       ___acrt_stdio_allocate_buffer_nolock 0042198c f   libucrt:_getbuf.obj
 0001:000209e8       ___acrt_GetStringTypeW     004219e8 f   libucrt:getstringtypew.obj
 0001:00020a7f       ___acrt_fp_strflt_to_string 00421a7f f   libucrt:_fptostr.obj
 0001:00020b79       ___acrt_fltout             00421b79 f   libucrt:cfout.obj
 0001:000220b2       ?__c32rtomb_utf8@__crt_mbstring@@YAIPAD_UPAU_Mbstatet@@AAV__crt_cached_ptd_host@@@Z 004230b2 f   libucrt:c32rtomb.obj
 0001:0002218e       ?__mbrtowc_utf8@__crt_mbstring@@YAIPA_WPBDIPAU_Mbstatet@@AAV__crt_cached_ptd_host@@@Z 0042318e f   libucrt:mbrtowc.obj
 0001:000221d1       ?__mbsrtowcs_utf8@__crt_mbstring@@YAIPA_WPAPBDIPAU_Mbstatet@@AAV__crt_cached_ptd_host@@@Z 004231d1 f   libucrt:mbrtowc.obj
 0001:000225a2       ___acrt_fenv_get_common_round_control 004235a2 f   libucrt:_fenvutils.obj
 0001:000225c4       ___acrt_fenv_get_control   004235c4 f   libucrt:_fenvutils.obj
 0001:00022644       ___acrt_fenv_get_status    00423644 f   libucrt:_fenvutils.obj
 0001:000226ee       ___acrt_fenv_set_control   004236ee f   libucrt:_fenvutils.obj
 0001:00022769       ___acrt_fenv_set_status    00423769 f   libucrt:_fenvutils.obj
 0001:00022863       __putwch_nolock            00423863 f   libucrt:putwch.obj
 0001:000228e5       ___acrt_DownlevelLocaleNameToLCID 004238e5 f   libucrt:lcidtoname_downlevel.obj
 0001:00022aad       __wgetenv_s                00423aad f   libucrt:getenv.obj
 0001:00022ac0       _qsort                     00423ac0 f   libucrt:qsort.obj
 0001:00022fb0       _strpbrk                   00423fb0 f   libucrt:strpbrk.obj
 0001:00022ff0       __mbsdec                   00423ff0 f   libucrt:mbsdec.obj
 0001:00023007       __mbsdec_l                 00424007 f   libucrt:mbsdec.obj
 0001:00023282       ___acrt_LCMapStringA       00424282 f   libucrt:lcmapstringa.obj
 0001:000232da       __wcsnicoll                004242da f   libucrt:wcsnicol.obj
 0001:00023347       __wcsnicoll_l              00424347 f   libucrt:wcsnicol.obj
 0001:00023407       __msize_base               00424407 f   libucrt:msize.obj
 0001:0002343a       __realloc_base             0042443a f   libucrt:realloc_base.obj
 0001:000234a3       ___set_fpsr_sse2           004244a3 f   libucrt:fpctrl.obj
 0001:00023523       __clrfp                    00424523 f   libucrt:fpctrl.obj
 0001:00023534       __ctrlfp                   00424534 f   libucrt:fpctrl.obj
 0001:0002355e       __set_statfp               0042455e f   libucrt:fpctrl.obj
 0001:000235b7       __statfp                   004245b7 f   libucrt:fpctrl.obj
 0001:000235d0       ___ascii_strnicmp          004245d0 f   libucrt:_strnicm.obj
 0001:00023631       ??0__crt_seek_guard@@QAE@H_J@Z 00424631 f i libucrt:chsize.obj
 0001:0002367e       __chsize_nolock            0042467e f   libucrt:chsize.obj
 0001:000236b5       __chsize_nolock_internal   004246b5 f   libucrt:chsize.obj
 0001:00023858       _fegetenv                  00424858 f   libucrt:fegetenv.obj
 0001:00023875       _fesetenv                  00424875 f   libucrt:fesetenv.obj
 0001:000238c0       _feholdexcept              004248c0 f   libucrt:feholdexcept.obj
 0001:00023910       __CIlog10                  00424910 f   libucrt:log10_impl.obj
 0001:0002394b       __CIlog10_default          0042494b f   libucrt:log10_impl.obj
 0001:0002395f       __log10_default            0042495f     libucrt:log10_impl.obj
 0001:00023a20       _ceil                      00424a20 f   libucrt:ceil_pentium4.obj
 0001:00023a60       __ceil_pentium4            00424a60 f   libucrt:ceil_pentium4.obj
 0001:00023b3d       ?reset_and_return@__crt_mbstring@@YAIIPAU_Mbstatet@@@Z 00424b3d f   libucrt:common_utf8.obj
 0001:00023b51       ?return_illegal_sequence@__crt_mbstring@@YAIPAU_Mbstatet@@AAV__crt_cached_ptd_host@@@Z 00424b51 f   libucrt:common_utf8.obj
 0001:00023b73       ?__mbrtoc32_utf8@__crt_mbstring@@YAIPA_UPBDIPAU_Mbstatet@@AAV__crt_cached_ptd_host@@@Z 00424b73 f   libucrt:mbrtoc32.obj
 0001:00023d50       ___dcrt_lowio_ensure_console_output_initialized 00424d50 f   libucrt:initcon.obj
 0001:00023d6f       ___dcrt_terminate_console_output 00424d6f f   libucrt:initcon.obj
 0001:00023d86       ___dcrt_write_console      00424d86 f   libucrt:initcon.obj
 0001:00023ddb       ___strncnt                 00424ddb f   libucrt:strncnt.obj
 0001:00023df7       ___acrt_CompareStringW     00424df7 f   libucrt:comparestringw.obj
 0001:00023e5c       ___acrt_initialize_sse2    00424e5c f   libucrt:mathfcns.obj
 0001:00023e70       __CIlog10_pentium4         00424e70 f   libucrt:log10_pentium4.obj
 0001:00023e88       __log10_pentium4           00424e88     libucrt:log10_pentium4.obj
 0001:00024120       __fFEXP                    00425120 f   libucrt:87tran.obj
 0001:00024177       __rtinfpopse               00425177     libucrt:87tran.obj
 0001:00024179       __rtinfnpopse              00425179     libucrt:87tran.obj
 0001:00024189       __fFLN                     00425189     libucrt:87tran.obj
 0001:0002423e       __rtinfpop                 0042523e     libucrt:87tran.obj
 0001:00024240       __rtinfnpop                00425240     libucrt:87tran.obj
 0001:00024250       __rtforexpinf              00425250 f   libucrt:87tran.obj
 0001:0002425d       __ffexpm1                  0042525d     libucrt:87tran.obj
 0001:00024310       __trandisp1                00425310 f   libucrt:87disp.obj
 0001:00024385       __trandisp2                00425385 f   libucrt:87disp.obj
 0001:0002441f       __rttospopde               0042541f     libucrt:87disp.obj
 0001:00024424       __rttospop                 00425424     libucrt:87disp.obj
 0001:00024430       __rtnospop                 00425430 f   libucrt:87disp.obj
 0001:00024440       __rttosnpop                00425440 f   libucrt:87disp.obj
 0001:00024441       __rtnospopde               00425441     libucrt:87disp.obj
 0001:00024448       __rtzeropop                00425448     libucrt:87disp.obj
 0001:0002444a       __rtzeronpop               0042544a     libucrt:87disp.obj
 0001:00024450       __rtzerospop               00425450 f   libucrt:87disp.obj
 0001:0002445d       __rtonepop                 0042545d     libucrt:87disp.obj
 0001:00024460       __rtonenpop                00425460 f   libucrt:87disp.obj
 0001:00024470       __tosnan1                  00425470 f   libucrt:87disp.obj
 0001:000244a0       __nosnan2                  004254a0 f   libucrt:87disp.obj
 0001:000244b0       __tosnan2                  004254b0 f   libucrt:87disp.obj
 0001:000244e0       __nan2                     004254e0 f   libucrt:87disp.obj
 0001:00024520       __rtindfpop                00425520 f   libucrt:87disp.obj
 0001:00024522       __rtindfnpop               00425522     libucrt:87disp.obj
 0001:00024533       __rttosnpopde              00425533     libucrt:87disp.obj
 0001:00024540       __rtatan2inf               00425540 f   libucrt:87disp.obj
 0001:0002455d       __rtchsifneg               0042555d     libucrt:87disp.obj
 0001:00024570       __twoToTOS                 00425570 f   libucrt:common.obj
 0001:00024585       __load_CW                  00425585 f   libucrt:common.obj
 0001:0002459c       __convertTOStoQNaN         0042559c f   libucrt:common.obj
 0001:000245b5       __fload_withFB             004255b5 f   libucrt:common.obj
 0001:000245f8       __checkTOS_withFB          004255f8 f   libucrt:common.obj
 0001:0002460e       __fast_exit                0042560e f   libucrt:common.obj
 0001:0002461b       __math_exit                0042561b f   libucrt:common.obj
 0001:00024645       __check_overflow_exit      00425645 f   libucrt:common.obj
 0001:00024659       __check_range_exit         00425659 f   libucrt:common.obj
 0001:00024700       __startTwoArgErrorHandling 00425700 f   libucrt:genexcep.obj
 0001:00024717       __startOneArgErrorHandling 00425717 f   libucrt:genexcep.obj
 0001:00024753       ___libm_error_support      00425753 f   libucrt:libm_error.obj
 0001:00024947       __ceil_default             00425947 f   libucrt:ceil.obj
 0001:000249fc       __d_inttype                004259fc f   libucrt:powhlp.obj
 0001:00024a64       __powhlp                   00425a64 f   libucrt:powhlp.obj
 0001:00024b8f       __87except                 00425b8f f   libucrt:87except.obj
 0001:00024c99       __frnd                     00425c99 f   libucrt:frnd.obj
 0001:00024cad       __errcode                  00425cad f   libucrt:fpexcept.obj
 0001:00024ce1       __except1                  00425ce1 f   libucrt:fpexcept.obj
 0001:00024daf       __handle_exc               00425daf f   libucrt:fpexcept.obj
 0001:00025028       __raise_exc                00426028 f   libucrt:fpexcept.obj
 0001:0002504b       __raise_exc_ex             0042604b f   libucrt:fpexcept.obj
 0001:00025341       __set_errno_from_matherr   00426341 f   libucrt:fpexcept.obj
 0001:00025370       __umatherr                 00426370 f   libucrt:fpexcept.obj
 0001:00025410       __decomp                   00426410 f   libucrt:util.obj
 0001:000254e2       __set_exp                  004264e2 f   libucrt:util.obj
 0001:0002550f       __sptype                   0042650f f   libucrt:util.obj
 0001:0002556d       __fpclass                  0042656d f   libucrt:ieeemisc.obj
 0001:00025620       __FindPESection            00426620 f   LIBCMT:pesect.obj
 0001:00025670       __IsNonwritableInCurrentImage 00426670 f   LIBCMT:pesect.obj
 0001:00025730       __ValidateImageBase        00426730 f   LIBCMT:pesect.obj
 0001:00025761       __EH_epilog3               00426761 f   LIBCMT:ehprolg3.obj
 0001:00025775       __EH_prolog3               00426775 f   LIBCMT:ehprolg3.obj
 0001:000257a8       __EH_prolog3_catch         004267a8 f   LIBCMT:ehprolg3.obj
 0001:000257e0       __aulldiv                  004267e0 f   LIBCMT:ulldiv.obj
 0001:00025850       __allmul                   00426850 f   LIBCMT:llmul.obj
 0001:00025890       __aulldvrm                 00426890 f   LIBCMT:ulldvrm.obj
 0001:00025930       __allshl                   00426930 f   LIBCMT:llshl.obj
 0001:00025950       __aullshr                  00426950 f   LIBCMT:ullshr.obj
 0001:00025970       __alldiv                   00426970 f   LIBCMT:lldiv.obj
 0001:00025a20       __alldvrm                  00426a20 f   LIBCMT:lldvrm.obj
 0001:00025b00       __allrem                   00426b00 f   LIBCMT:llrem.obj
 0001:00025bc0       __alloca_probe             00426bc0 f   LIBCMT:chkstk.obj
 0001:00025bc0       __chkstk                   00426bc0 f   LIBCMT:chkstk.obj
 0001:00025bf0       __alloca_probe_16          00426bf0 f   LIBCMT:alloca16.obj
 0001:00025c06       __alloca_probe_8           00426c06     LIBCMT:alloca16.obj
 0001:00025c20       __ftol2_sse                00426c20 f   LIBCMT:ftol2.obj
 0001:00025c30       __ftoi2                    00426c30 f   LIBCMT:ftol2.obj
 0001:00025cb0       _strrchr                   00426cb0 f   libvcruntime:strrchr.obj
 0001:00025de7       _wcschr                    00426de7 f   libvcruntime:wcschr.obj
 0001:00025e97       __filter_x86_sse2_floating_point_exception 00426e97 f   LIBCMT:x86_exception_filter.obj
 0001:00025e97       __filter_x86_sse2_floating_point_exception_default 00426e97 f   LIBCMT:x86_exception_filter.obj
 0002:00000000       __imp__TextOutA@20         00428000     gdi32:GDI32.dll
 0002:00000004       __imp__SetTextColor@8      00428004     gdi32:GDI32.dll
 0002:00000008       __imp__SelectObject@8      00428008     gdi32:GDI32.dll
 0002:0000000c       __imp__SetBkMode@8         0042800c     gdi32:GDI32.dll
 0002:00000010       __imp__DeleteObject@4      00428010     gdi32:GDI32.dll
 0002:00000014       __imp__CreateSolidBrush@4  00428014     gdi32:GDI32.dll
 0002:00000018       __imp__CreateFontA@56      00428018     gdi32:GDI32.dll
 0002:0000001c       __imp__GetStockObject@4    0042801c     gdi32:GDI32.dll
 0002:00000020       \177GDI32_NULL_THUNK_DATA  00428020     gdi32:GDI32.dll
 0002:00000024       __imp__GetLocalTime@4      00428024     kernel32:KERNEL32.dll
 0002:00000028       __imp__CreateFileA@28      00428028     kernel32:KERNEL32.dll
 0002:0000002c       __imp__SetFilePointer@16   0042802c     kernel32:KERNEL32.dll
 0002:00000030       __imp__WriteFile@20        00428030     kernel32:KERNEL32.dll
 0002:00000034       __imp__GetFileSize@8       00428034     kernel32:KERNEL32.dll
 0002:00000038       __imp__ReadFile@20         00428038     kernel32:KERNEL32.dll
 0002:0000003c       __imp__GetCurrentThreadId@0 0042803c     kernel32:KERNEL32.dll
 0002:00000040       __imp__GetCurrentProcessId@0 00428040     kernel32:KERNEL32.dll
 0002:00000044       __imp__GetCurrentProcess@0 00428044     kernel32:KERNEL32.dll
 0002:00000048       __imp__SetErrorMode@4      00428048     kernel32:KERNEL32.dll
 0002:0000004c       __imp__SetUnhandledExceptionFilter@4 0042804c     kernel32:KERNEL32.dll
 0002:00000050       __imp__GetFullPathNameA@16 00428050     kernel32:KERNEL32.dll
 0002:00000054       __imp__OpenProcess@12      00428054     kernel32:KERNEL32.dll
 0002:00000058       __imp__VirtualAllocEx@20   00428058     kernel32:KERNEL32.dll
 0002:0000005c       __imp__WriteProcessMemory@20 0042805c     kernel32:KERNEL32.dll
 0002:00000060       __imp__VirtualFreeEx@16    00428060     kernel32:KERNEL32.dll
 0002:00000064       __imp__GetProcAddress@8    00428064     kernel32:KERNEL32.dll
 0002:00000068       __imp__GetModuleHandleA@4  00428068     kernel32:KERNEL32.dll
 0002:0000006c       __imp__GetProcessId@4      0042806c     kernel32:KERNEL32.dll
 0002:00000070       __imp__CreateMutexA@12     00428070     kernel32:KERNEL32.dll
 0002:00000074       __imp__CreateRemoteThread@28 00428074     kernel32:KERNEL32.dll
 0002:00000078       __imp__WaitForSingleObject@8 00428078     kernel32:KERNEL32.dll
 0002:0000007c       __imp__DeleteFileA@4       0042807c     kernel32:KERNEL32.dll
 0002:00000080       __imp__GetPrivateProfileStringA@24 00428080     kernel32:KERNEL32.dll
 0002:00000084       __imp__GetPrivateProfileIntA@16 00428084     kernel32:KERNEL32.dll
 0002:00000088       __imp__TerminateThread@8   00428088     kernel32:KERNEL32.dll
 0002:0000008c       __imp__CreateIoCompletionPort@16 0042808c     kernel32:KERNEL32.dll
 0002:00000090       __imp__GetLastError@0      00428090     kernel32:KERNEL32.dll
 0002:00000094       __imp__SetThreadPriority@8 00428094     kernel32:KERNEL32.dll
 0002:00000098       __imp__GetSystemInfo@4     00428098     kernel32:KERNEL32.dll
 0002:0000009c       __imp__CreateSemaphoreA@16 0042809c     kernel32:KERNEL32.dll
 0002:000000a0       __imp__ReleaseSemaphore@12 004280a0     kernel32:KERNEL32.dll
 0002:000000a4       __imp__CreateDirectoryA@8  004280a4     kernel32:KERNEL32.dll
 0002:000000a8       __imp__TerminateProcess@8  004280a8     kernel32:KERNEL32.dll
 0002:000000ac       __imp__WriteConsoleW@20    004280ac     kernel32:KERNEL32.dll
 0002:000000b0       __imp__SetEndOfFile@4      004280b0     kernel32:KERNEL32.dll
 0002:000000b4       __imp__HeapReAlloc@16      004280b4     kernel32:KERNEL32.dll
 0002:000000b8       __imp__HeapSize@12         004280b8     kernel32:KERNEL32.dll
 0002:000000bc       __imp__FlushFileBuffers@4  004280bc     kernel32:KERNEL32.dll
 0002:000000c0       __imp__CreateFileW@28      004280c0     kernel32:KERNEL32.dll
 0002:000000c4       __imp__GetStringTypeW@16   004280c4     kernel32:KERNEL32.dll
 0002:000000c8       __imp__SetStdHandle@8      004280c8     kernel32:KERNEL32.dll
 0002:000000cc       __imp__GetProcessHeap@0    004280cc     kernel32:KERNEL32.dll
 0002:000000d0       __imp__SetEnvironmentVariableW@8 004280d0     kernel32:KERNEL32.dll
 0002:000000d4       __imp__FreeEnvironmentStringsW@4 004280d4     kernel32:KERNEL32.dll
 0002:000000d8       __imp__GetEnvironmentStringsW@0 004280d8     kernel32:KERNEL32.dll
 0002:000000dc       __imp__WideCharToMultiByte@32 004280dc     kernel32:KERNEL32.dll
 0002:000000e0       __imp__GetCommandLineW@0   004280e0     kernel32:KERNEL32.dll
 0002:000000e4       __imp__GetCommandLineA@0   004280e4     kernel32:KERNEL32.dll
 0002:000000e8       __imp__GetCPInfo@8         004280e8     kernel32:KERNEL32.dll
 0002:000000ec       __imp__GetOEMCP@0          004280ec     kernel32:KERNEL32.dll
 0002:000000f0       __imp__GetACP@0            004280f0     kernel32:KERNEL32.dll
 0002:000000f4       __imp__IsValidCodePage@4   004280f4     kernel32:KERNEL32.dll
 0002:000000f8       __imp__FindNextFileW@8     004280f8     kernel32:KERNEL32.dll
 0002:000000fc       __imp__FindFirstFileExW@24 004280fc     kernel32:KERNEL32.dll
 0002:00000100       __imp__FindClose@4         00428100     kernel32:KERNEL32.dll
 0002:00000104       __imp__GetTimeZoneInformation@4 00428104     kernel32:KERNEL32.dll
 0002:00000108       __imp__MoveFileExW@12      00428108     kernel32:KERNEL32.dll
 0002:0000010c       __imp__CloseHandle@4       0042810c     kernel32:KERNEL32.dll
 0002:00000110       __imp__LeaveCriticalSection@4 00428110     kernel32:KERNEL32.dll
 0002:00000114       __imp__EnterCriticalSection@4 00428114     kernel32:KERNEL32.dll
 0002:00000118       __imp__DeleteCriticalSection@4 00428118     kernel32:KERNEL32.dll
 0002:0000011c       __imp__InitializeCriticalSection@4 0042811c     kernel32:KERNEL32.dll
 0002:00000120       __imp__GetTickCount@0      00428120     kernel32:KERNEL32.dll
 0002:00000124       __imp__Sleep@4             00428124     kernel32:KERNEL32.dll
 0002:00000128       __imp__GetQueuedCompletionStatus@20 00428128     kernel32:KERNEL32.dll
 0002:0000012c       __imp__CreateThread@24     0042812c     kernel32:KERNEL32.dll
 0002:00000130       __imp__LCMapStringW@24     00428130     kernel32:KERNEL32.dll
 0002:00000134       __imp__CompareStringW@24   00428134     kernel32:KERNEL32.dll
 0002:00000138       __imp__MultiByteToWideChar@24 00428138     kernel32:KERNEL32.dll
 0002:0000013c       __imp__SetFilePointerEx@20 0042813c     kernel32:KERNEL32.dll
 0002:00000140       __imp__GetFileSizeEx@8     00428140     kernel32:KERNEL32.dll
 0002:00000144       __imp__GetConsoleOutputCP@0 00428144     kernel32:KERNEL32.dll
 0002:00000148       __imp__GetFileType@4       00428148     kernel32:KERNEL32.dll
 0002:0000014c       __imp__DecodePointer@4     0042814c     kernel32:KERNEL32.dll
 0002:00000150       __imp__ReadConsoleW@20     00428150     kernel32:KERNEL32.dll
 0002:00000154       __imp__GetConsoleMode@8    00428154     kernel32:KERNEL32.dll
 0002:00000158       __imp__HeapFree@12         00428158     kernel32:KERNEL32.dll
 0002:0000015c       __imp__HeapAlloc@12        0042815c     kernel32:KERNEL32.dll
 0002:00000160       __imp__GetStdHandle@4      00428160     kernel32:KERNEL32.dll
 0002:00000164       __imp__GetModuleFileNameW@12 00428164     kernel32:KERNEL32.dll
 0002:00000168       __imp__GetModuleHandleExW@12 00428168     kernel32:KERNEL32.dll
 0002:0000016c       __imp__ExitProcess@4       0042816c     kernel32:KERNEL32.dll
 0002:00000170       __imp__LoadLibraryExW@12   00428170     kernel32:KERNEL32.dll
 0002:00000174       __imp__FreeLibrary@4       00428174     kernel32:KERNEL32.dll
 0002:00000178       __imp__TlsFree@4           00428178     kernel32:KERNEL32.dll
 0002:0000017c       __imp__TlsSetValue@8       0042817c     kernel32:KERNEL32.dll
 0002:00000180       __imp__TlsGetValue@4       00428180     kernel32:KERNEL32.dll
 0002:00000184       __imp__TlsAlloc@0          00428184     kernel32:KERNEL32.dll
 0002:00000188       __imp__InitializeCriticalSectionAndSpinCount@8 00428188     kernel32:KERNEL32.dll
 0002:0000018c       __imp__EncodePointer@4     0042818c     kernel32:KERNEL32.dll
 0002:00000190       __imp__SetLastError@4      00428190     kernel32:KERNEL32.dll
 0002:00000194       __imp__RaiseException@16   00428194     kernel32:KERNEL32.dll
 0002:00000198       __imp__RtlUnwind@16        00428198     kernel32:KERNEL32.dll
 0002:0000019c       __imp__UnhandledExceptionFilter@4 0042819c     kernel32:KERNEL32.dll
 0002:000001a0       __imp__IsProcessorFeaturePresent@4 004281a0     kernel32:KERNEL32.dll
 0002:000001a4       __imp__IsDebuggerPresent@0 004281a4     kernel32:KERNEL32.dll
 0002:000001a8       __imp__GetStartupInfoW@4   004281a8     kernel32:KERNEL32.dll
 0002:000001ac       __imp__GetModuleHandleW@4  004281ac     kernel32:KERNEL32.dll
 0002:000001b0       __imp__QueryPerformanceCounter@4 004281b0     kernel32:KERNEL32.dll
 0002:000001b4       __imp__GetSystemTimeAsFileTime@4 004281b4     kernel32:KERNEL32.dll
 0002:000001b8       __imp__InitializeSListHead@4 004281b8     kernel32:KERNEL32.dll
 0002:000001bc       \177KERNEL32_NULL_THUNK_DATA 004281bc     kernel32:KERNEL32.dll
 0002:000001c0       __imp__EnumProcessModules@16 004281c0     Psapi:PSAPI.DLL
 0002:000001c4       __imp__GetModuleBaseNameA@16 004281c4     Psapi:PSAPI.DLL
 0002:000001c8       __imp__GetModuleFileNameExA@16 004281c8     Psapi:PSAPI.DLL
 0002:000001cc       __imp__EnumProcesses@12    004281cc     Psapi:PSAPI.DLL
 0002:000001d0       \177PSAPI_NULL_THUNK_DATA  004281d0     Psapi:PSAPI.DLL
 0002:000001d4       __imp__LoadStringA@16      004281d4     user32:USER32.dll
 0002:000001d8       __imp__wsprintfA           004281d8     user32:USER32.dll
 0002:000001dc       __imp__SetWindowTextA@8    004281dc     user32:USER32.dll
 0002:000001e0       __imp__SetTimer@16         004281e0     user32:USER32.dll
 0002:000001e4       __imp__LoadAcceleratorsA@8 004281e4     user32:USER32.dll
 0002:000001e8       __imp__GetMessageA@16      004281e8     user32:USER32.dll
 0002:000001ec       __imp__TranslateAcceleratorA@12 004281ec     user32:USER32.dll
 0002:000001f0       __imp__TranslateMessage@4  004281f0     user32:USER32.dll
 0002:000001f4       __imp__DispatchMessageA@4  004281f4     user32:USER32.dll
 0002:000001f8       __imp__LoadIconA@8         004281f8     user32:USER32.dll
 0002:000001fc       __imp__LoadCursorA@8       004281fc     user32:USER32.dll
 0002:00000200       __imp__RegisterClassExA@4  00428200     user32:USER32.dll
 0002:00000204       __imp__CreateWindowExA@48  00428204     user32:USER32.dll
 0002:00000208       __imp__ShowWindow@8        00428208     user32:USER32.dll
 0002:0000020c       __imp__UpdateWindow@4      0042820c     user32:USER32.dll
 0002:00000210       __imp__SetClassLongA@12    00428210     user32:USER32.dll
 0002:00000214       __imp__GetDlgItem@8        00428214     user32:USER32.dll
 0002:00000218       __imp__SendMessageA@16     00428218     user32:USER32.dll
 0002:0000021c       __imp__EndDialog@8         0042821c     user32:USER32.dll
 0002:00000220       __imp__DialogBoxParamA@20  00428220     user32:USER32.dll
 0002:00000224       __imp__MessageBoxA@16      00428224     user32:USER32.dll
 0002:00000228       __imp__DestroyWindow@4     00428228     user32:USER32.dll
 0002:0000022c       __imp__DefWindowProcA@16   0042822c     user32:USER32.dll
 0002:00000230       __imp__GetClientRect@8     00428230     user32:USER32.dll
 0002:00000234       __imp__ReleaseDC@8         00428234     user32:USER32.dll
 0002:00000238       __imp__FillRect@12         00428238     user32:USER32.dll
 0002:0000023c       __imp__GetDC@4             0042823c     user32:USER32.dll
 0002:00000240       __imp__PostQuitMessage@4   00428240     user32:USER32.dll
 0002:00000244       \177USER32_NULL_THUNK_DATA 00428244     user32:USER32.dll
 0002:00000248       __imp__WSAStartup@8        00428248     ws2_32:WS2_32.dll
 0002:0000024c       __imp__socket@12           0042824c     ws2_32:WS2_32.dll
 0002:00000250       __imp__htons@4             00428250     ws2_32:WS2_32.dll
 0002:00000254       __imp__gethostbyname@4     00428254     ws2_32:WS2_32.dll
 0002:00000258       __imp__connect@12          00428258     ws2_32:WS2_32.dll
 0002:0000025c       __imp__WSAGetLastError@0   0042825c     ws2_32:WS2_32.dll
 0002:00000260       __imp__closesocket@4       00428260     ws2_32:WS2_32.dll
 0002:00000264       __imp__send@16             00428264     ws2_32:WS2_32.dll
 0002:00000268       __imp__WSASocketA@24       00428268     ws2_32:WS2_32.dll
 0002:0000026c       __imp__htonl@4             0042826c     ws2_32:WS2_32.dll
 0002:00000270       __imp__bind@12             00428270     ws2_32:WS2_32.dll
 0002:00000274       __imp__listen@8            00428274     ws2_32:WS2_32.dll
 0002:00000278       __imp__WSASend@28          00428278     ws2_32:WS2_32.dll
 0002:0000027c       __imp__WSARecv@28          0042827c     ws2_32:WS2_32.dll
 0002:00000280       __imp__inet_ntoa@4         00428280     ws2_32:WS2_32.dll
 0002:00000284       __imp__WSAAccept@20        00428284     ws2_32:WS2_32.dll
 0002:00000288       __imp__recv@16             00428288     ws2_32:WS2_32.dll
 0002:0000028c       \177WS2_32_NULL_THUNK_DATA 0042828c     ws2_32:WS2_32.dll
 0002:00000290       __imp__MiniDumpWriteDump@28 00428290     dbghelp:dbghelp.dll
 0002:00000294       \177dbghelp_NULL_THUNK_DATA 00428294     dbghelp:dbghelp.dll
 0002:00000298       ___guard_check_icall_fptr  00428298     LIBCMT:guard_support.obj
 0002:0000029c       ___castguard_check_failure_os_handled_fptr 0042829c     LIBCMT:guard_support.obj
 0002:000002a0       ___xc_a                    004282a0     LIBCMT:initializers.obj
 0002:000002d4       ___xc_z                    004282d4     LIBCMT:initializers.obj
 0002:000002d8       ___xi_a                    004282d8     LIBCMT:initializers.obj
 0002:000002e4       ___acrt_stdio_initializer  004282e4     libucrt:stdio_initializer.obj
 0002:000002e8       ___acrt_timeset_initializer 004282e8     libucrt:timeset_initializer.obj
 0002:000002ec       ___acrt_multibyte_initializer 004282ec     libucrt:multibyte_initializer.obj
 0002:000002f0       ___acrt_fmode_initializer  004282f0     libucrt:fmode_initializer.obj
 0002:000002f4       ___acrt_tran_sse2_initializer 004282f4     libucrt:sse2_initializer.obj
 0002:000002f8       ___xi_z                    004282f8     LIBCMT:initializers.obj
 0002:000002fc       ___xp_a                    004282fc     LIBCMT:initializers.obj
 0002:00000300       ___acrt_locale_terminator  00428300     libucrt:locale_initializer.obj
 0002:00000304       ___dcrt_console_output_terminator 00428304     libucrt:console_output_initializer.obj
 0002:00000308       ___acrt_stdio_terminator   00428308     libucrt:stdio_initializer.obj
 0002:0000030c       ___xp_z                    0042830c     LIBCMT:initializers.obj
 0002:00000310       ___xt_a                    00428310     LIBCMT:initializers.obj
 0002:00000314       ___xt_z                    00428314     LIBCMT:initializers.obj
 0002:00000324       ??_7exception@std@@6B@     00428324     libcpmt:xthrow.obj
 0002:00000330       ??_7bad_alloc@std@@6B@     00428330     libcpmt:xthrow.obj
 0002:00000338       ??_C@_0P@GHFPNOJB@bad?5allocation@ 00428338     libcpmt:xthrow.obj
 0002:0000034c       ??_7logic_error@std@@6B@   0042834c     libcpmt:xthrow.obj
 0002:00000358       ??_7length_error@std@@6B@  00428358     libcpmt:xthrow.obj
 0002:00000364       ??_7type_info@@6B@         00428364     LIBCMT:std_type_info_static.obj
 0002:00000374       ??_7bad_array_new_length@std@@6B@ 00428374     LIBCMT:throw_bad_alloc.obj
 0002:0000037c       __pDestructExceptionObject 0042837c     libvcruntime:ehhelpers.obj
 0002:00000384       ??_7bad_exception@std@@6B@ 00428384     libvcruntime:frame.obj
 0002:0000038c       ??_C@_0O@DPKOEFFH@bad?5exception@ 0042838c     libvcruntime:frame.obj
 0002:00000728       ??_C@_08EHJDFFNH@__based?$CI@ 00428728     libvcruntime:undname.obj
 0002:00000734       ??_C@_07KOLFKCDI@__cdecl@  00428734     libvcruntime:undname.obj
 0002:0000073c       ??_C@_08GHMPAG@__pascal@   0042873c     libvcruntime:undname.obj
 0002:00000748       ??_C@_09IFJBGAPI@__stdcall@ 00428748     libvcruntime:undname.obj
 0002:00000754       ??_C@_0L@NPHFGOKO@__thiscall@ 00428754     libvcruntime:undname.obj
 0002:00000760       ??_C@_0L@JMKHOMEK@__fastcall@ 00428760     libvcruntime:undname.obj
 0002:0000076c       ??_C@_0N@BCKKPABJ@__vectorcall@ 0042876c     libvcruntime:undname.obj
 0002:0000077c       ??_C@_09HIJEGCPM@__clrcall@ 0042877c     libvcruntime:undname.obj
 0002:00000788       ??_C@_06GHPCKEAG@__eabi@   00428788     libvcruntime:undname.obj
 0002:00000790       ??_C@_09IOPIDJLG@__swift_1@ 00428790     libvcruntime:undname.obj
 0002:0000079c       ??_C@_09KFNFGKHF@__swift_2@ 0042879c     libvcruntime:undname.obj
 0002:000007a8       ??_C@_09LMMOFLDE@__swift_3@ 004287a8     libvcruntime:undname.obj
 0002:000007b4       ??_C@_07JOMMBBKO@__ptr64@  004287b4     libvcruntime:undname.obj
 0002:000007bc       ??_C@_0L@PILCLIHE@__restrict@ 004287bc     libvcruntime:undname.obj
 0002:000007c8       ??_C@_0M@GFIIJFMG@__unaligned@ 004287c8     libvcruntime:undname.obj
 0002:000007d4       ??_C@_09DHDLOLLB@restrict?$CI@ 004287d4     libvcruntime:undname.obj
 0002:000007e0       ??_C@_04NIHEBCM@?5new@     004287e0     libvcruntime:undname.obj
 0002:000007e8       ??_C@_07FPCDHGMM@?5delete@ 004287e8     libvcruntime:undname.obj
 0002:000007f0       ??_C@_01NEMOKFLO@?$DN@     004287f0     libvcruntime:undname.obj
 0002:000007f4       ??_C@_02GPIOPFAK@?$DO?$DO@ 004287f4     libvcruntime:undname.obj
 0002:000007f8       ??_C@_02FODMEDOG@?$DM?$DM@ 004287f8     libvcruntime:undname.obj
 0002:000007fc       ??_C@_01DCLJPIOD@?$CB@     004287fc     libvcruntime:undname.obj
 0002:00000800       ??_C@_02EGOFBIJA@?$DN?$DN@ 00428800     libvcruntime:undname.obj
 0002:00000804       ??_C@_02FDNJECIE@?$CB?$DN@ 00428804     libvcruntime:undname.obj
 0002:00000808       ??_C@_02GPECMEKF@?$FL?$FN@ 00428808     libvcruntime:undname.obj
 0002:0000080c       ??_C@_08LHJFAFGD@operator@ 0042880c     libvcruntime:undname.obj
 0002:00000818       ??_C@_02HBOOOICD@?9?$DO@   00428818     libvcruntime:undname.obj
 0002:0000081c       ??_C@_02ECNGHCIF@?$CL?$CL@ 0042881c     libvcruntime:undname.obj
 0002:00000820       ??_C@_02BAABKJLB@?9?9@     00428820     libvcruntime:undname.obj
 0002:00000824       ??_C@_01JOAMLHOP@?9@       00428824     libvcruntime:undname.obj
 0002:00000828       ??_C@_01MIFGBAGJ@?$CL@     00428828     libvcruntime:undname.obj
 0002:0000082c       ??_C@_01HNPIGOCE@?$CG@     0042882c     libvcruntime:undname.obj
 0002:00000830       ??_C@_03MNHNFDLC@?9?$DO?$CK@ 00428830     libvcruntime:undname.obj
 0002:00000834       ??_C@_01FGNFDNOH@?$CF@     00428834     libvcruntime:undname.obj
 0002:00000838       ??_C@_01MNNFJEPP@?$DM@     00428838     libvcruntime:undname.obj
 0002:0000083c       ??_C@_02EHCHHCKH@?$DM?$DN@ 0042883c     libvcruntime:undname.obj
 0002:00000840       ??_C@_01PPODPGHN@?$DO@     00428840     libvcruntime:undname.obj
 0002:00000844       ??_C@_02EEKDKGMJ@?$DO?$DN@ 00428844     libvcruntime:undname.obj
 0002:00000848       ??_C@_01IHBHIGKO@?0@       00428848     libvcruntime:undname.obj
 0002:0000084c       ??_C@_02HCKGKOFO@?$CI?$CJ@ 0042884c     libvcruntime:undname.obj
 0002:00000850       ??_C@_01PJKLJHI@?$HO@      00428850     libvcruntime:undname.obj
 0002:00000854       ??_C@_01JKBOJNNK@?$FO@     00428854     libvcruntime:undname.obj
 0002:00000858       ??_C@_01DNKMNLPK@?$HM@     00428858     libvcruntime:undname.obj
 0002:0000085c       ??_C@_02PPKAJPJL@?$CG?$CG@ 0042885c     libvcruntime:undname.obj
 0002:00000860       ??_C@_02NONPIBCD@?$HM?$HM@ 00428860     libvcruntime:undname.obj
 0002:00000864       ??_C@_02FPIMKNGF@?$CK?$DN@ 00428864     libvcruntime:undname.obj
 0002:00000868       ??_C@_02FOEOMHFC@?$CL?$DN@ 00428868     libvcruntime:undname.obj
 0002:0000086c       ??_C@_02FKMDLLOA@?9?$DN@   0042886c     libvcruntime:undname.obj
 0002:00000870       ??_C@_02FJEHGPIO@?1?$DN@   00428870     libvcruntime:undname.obj
 0002:00000874       ??_C@_02FENAOKFI@?$CF?$DN@ 00428874     libvcruntime:undname.obj
 0002:00000878       ??_C@_03IKFCCPFF@?$DO?$DO?$DN@ 00428878     libvcruntime:undname.obj
 0002:0000087c       ??_C@_03CDNPDDLA@?$DM?$DM?$DN@ 0042887c     libvcruntime:undname.obj
 0002:00000880       ??_C@_02FGJGFEAB@?$CG?$DN@ 00428880     libvcruntime:undname.obj
 0002:00000884       ??_C@_02DHLNPPGH@?$HM?$DN@ 00428884     libvcruntime:undname.obj
 0002:00000888       ??_C@_02MHEGNOJ@?$FO?$DN@  00428888     libvcruntime:undname.obj
 0002:0000088c       ??_C@_09IFPLHPGF@?$GAvftable?8@ 0042888c     libvcruntime:undname.obj
 0002:00000898       ??_C@_09BLBHBJP@?$GAvbtable?8@ 00428898     libvcruntime:undname.obj
 0002:000008a4       ??_C@_07FEEIOKP@?$GAvcall?8@ 004288a4     libvcruntime:undname.obj
 0002:000008ac       ??_C@_08LLFFHHDJ@?$GAtypeof?8@ 004288ac     libvcruntime:undname.obj
 0002:000008b8       ??_C@_0BF@KDPPACIK@?$GAlocal?5static?5guard?8@ 004288b8     libvcruntime:undname.obj
 0002:000008d0       ??_C@_08OBABFOLI@?$GAstring?8@ 004288d0     libvcruntime:undname.obj
 0002:000008dc       ??_C@_0BD@JDLKDPAB@?$GAvbase?5destructor?8@ 004288dc     libvcruntime:undname.obj
 0002:000008f0       ??_C@_0BN@DEGPLNFK@?$GAvector?5deleting?5destructor?8@ 004288f0     libvcruntime:undname.obj
 0002:00000910       ??_C@_0BO@OBMKPJIG@?$GAdefault?5constructor?5closure?8@ 00428910     libvcruntime:undname.obj
 0002:00000930       ??_C@_0BN@IMDCHIKM@?$GAscalar?5deleting?5destructor?8@ 00428930     libvcruntime:undname.obj
 0002:00000950       ??_C@_0BO@PFGOCPJJ@?$GAvector?5constructor?5iterator?8@ 00428950     libvcruntime:undname.obj
 0002:00000970       ??_C@_0BN@LFPFMEDL@?$GAvector?5destructor?5iterator?8@ 00428970     libvcruntime:undname.obj
 0002:00000990       ??_C@_0CE@IKBNEHA@?$GAvector?5vbase?5constructor?5itera@ 00428990     libvcruntime:undname.obj
 0002:000009b4       ??_C@_0BL@NILFHHPC@?$GAvirtual?5displacement?5map?8@ 004289b4     libvcruntime:undname.obj
 0002:000009d0       ??_C@_0CB@JONCMFFK@?$GAeh?5vector?5constructor?5iterator@ 004289d0     libvcruntime:undname.obj
 0002:000009f4       ??_C@_0CA@GCEOPDGL@?$GAeh?5vector?5destructor?5iterator?8@ 004289f4     libvcruntime:undname.obj
 0002:00000a14       ??_C@_0CH@OOJPLCPH@?$GAeh?5vector?5vbase?5constructor?5it@ 00428a14     libvcruntime:undname.obj
 0002:00000a3c       ??_C@_0BL@LLKPOHJI@?$GAcopy?5constructor?5closure?8@ 00428a3c     libvcruntime:undname.obj
 0002:00000a58       ??_C@_0BA@KBCDOMBN@?$GAudt?5returning?8@ 00428a58     libvcruntime:undname.obj
 0002:00000a68       ??_C@_03KLGMFNMG@?$GAEH@   00428a68     libvcruntime:undname.obj
 0002:00000a6c       ??_C@_05KHLCHHI@?$GARTTI@  00428a6c     libvcruntime:undname.obj
 0002:00000a74       ??_C@_0BA@KKLDJDLB@?$GAlocal?5vftable?8@ 00428a74     libvcruntime:undname.obj
 0002:00000a84       ??_C@_0CE@IIHCMGGL@?$GAlocal?5vftable?5constructor?5clos@ 00428a84     libvcruntime:undname.obj
 0002:00000aa8       ??_C@_06FHBGPFGH@?5new?$FL?$FN@ 00428aa8     libvcruntime:undname.obj
 0002:00000ab0       ??_C@_09LBNFPBCA@?5delete?$FL?$FN@ 00428ab0     libvcruntime:undname.obj
 0002:00000abc       ??_C@_0P@HJKNJFNN@?$GAomni?5callsig?8@ 00428abc     libvcruntime:undname.obj
 0002:00000acc       ??_C@_0BL@CNOONJFP@?$GAplacement?5delete?5closure?8@ 00428acc     libvcruntime:undname.obj
 0002:00000ae8       ??_C@_0BN@CKNJLHMB@?$GAplacement?5delete?$FL?$FN?5closure?8@ 00428ae8     libvcruntime:undname.obj
 0002:00000b08       ??_C@_0CG@CFDHKGGD@?$GAmanaged?5vector?5constructor?5ite@ 00428b08     libvcruntime:undname.obj
 0002:00000b30       ??_C@_0CF@IMGKMJNO@?$GAmanaged?5vector?5destructor?5iter@ 00428b30     libvcruntime:undname.obj
 0002:00000b58       ??_C@_0CG@HLDDJMAG@?$GAeh?5vector?5copy?5constructor?5ite@ 00428b58     libvcruntime:undname.obj
 0002:00000b80       ??_C@_0CM@FCBBDIGB@?$GAeh?5vector?5vbase?5copy?5construct@ 00428b80     libvcruntime:undname.obj
 0002:00000bac       ??_C@_0BL@CLIPGLGB@?$GAdynamic?5initializer?5for?5?8@ 00428bac     libvcruntime:undname.obj
 0002:00000bc8       ??_C@_0CB@PDBIFEP@?$GAdynamic?5atexit?5destructor?5for?5@ 00428bc8     libvcruntime:undname.obj
 0002:00000bec       ??_C@_0CD@CGAJBKEJ@?$GAvector?5copy?5constructor?5iterat@ 00428bec     libvcruntime:undname.obj
 0002:00000c10       ??_C@_0CJ@GJELGAMM@?$GAvector?5vbase?5copy?5constructor?5@ 00428c10     libvcruntime:undname.obj
 0002:00000c3c       ??_C@_0CL@FGIJHLCE@?$GAmanaged?5vector?5copy?5constructo@ 00428c3c     libvcruntime:undname.obj
 0002:00000c68       ??_C@_0BM@PMGGMLDN@?$GAlocal?5static?5thread?5guard?8@ 00428c68     libvcruntime:undname.obj
 0002:00000c84       ??_C@_0N@BDNMDMOL@operator?5?$CC?$CC?5@ 00428c84     libvcruntime:undname.obj
 0002:00000c94       ??_C@_0BC@GGEBGALA@operator?5co_await@ 00428c94     libvcruntime:undname.obj
 0002:00000ca8       ??_C@_0M@GAAIMMOH@operator?$DM?$DN?$DO@ 00428ca8     libvcruntime:undname.obj
 0002:00000cb4       ??_C@_0BC@DAFEJGAK@?5Type?5Descriptor?8@ 00428cb4     libvcruntime:undname.obj
 0002:00000cc8       ??_C@_0BM@LDKODKLH@?5Base?5Class?5Descriptor?5at?5?$CI@ 00428cc8     libvcruntime:undname.obj
 0002:00000ce4       ??_C@_0BD@LGICGFMM@?5Base?5Class?5Array?8@ 00428ce4     libvcruntime:undname.obj
 0002:00000cf8       ??_C@_0BN@MECKDCOJ@?5Class?5Hierarchy?5Descriptor?8@ 00428cf8     libvcruntime:undname.obj
 0002:00000d18       ??_C@_0BK@CFCOFLF@?5Complete?5Object?5Locator?8@ 00428d18     libvcruntime:undname.obj
 0002:00000d34       ??_C@_0BG@JNJLAMPM@?$GAanonymous?5namespace?8@ 00428d34     libvcruntime:undname.obj
 0002:00000d58       ??_C@_1DM@KHCHBNEB@?$AAa?$AAp?$AAi?$AA?9?$AAm?$AAs?$AA?9?$AAw?$AAi?$AAn?$AA?9?$AAc?$AAo?$AAr?$AAe@ 00428d58     libvcruntime:winapi_downlevel.obj
 0002:00000d94       ??_C@_1DK@LPPGFMPP@?$AAa?$AAp?$AAi?$AA?9?$AAm?$AAs?$AA?9?$AAw?$AAi?$AAn?$AA?9?$AAc?$AAo?$AAr?$AAe@ 00428d94     libvcruntime:winapi_downlevel.obj
 0002:00000dd0       ??_C@_1BC@GDMECMAK@?$AAk?$AAe?$AAr?$AAn?$AAe?$AAl?$AA3?$AA2@ 00428dd0     libvcruntime:winapi_downlevel.obj
 0002:00000de4       ??_C@_1BA@PFFKHIOG@?$AAa?$AAp?$AAi?$AA?9?$AAm?$AAs?$AA?9@ 00428de4     libvcruntime:winapi_downlevel.obj
 0002:00000dfc       ??_C@_08KNHFBNJ@FlsAlloc@  00428dfc     libvcruntime:winapi_downlevel.obj
 0002:00000e10       ??_C@_07PEJMOBNF@FlsFree@  00428e10     libvcruntime:winapi_downlevel.obj
 0002:00000e20       ??_C@_0M@GDNOONDI@FlsGetValue@ 00428e20     libvcruntime:winapi_downlevel.obj
 0002:00000e34       ??_C@_0M@JCPCPOEF@FlsSetValue@ 00428e34     libvcruntime:winapi_downlevel.obj
 0002:00000e48       ??_C@_0BM@HCFOFFN@InitializeCriticalSectionEx@ 00428e48     libvcruntime:winapi_downlevel.obj
 0002:00000e68       ?standard_lookup_table_spectre@__crt_stdio_output@@3V?$spectre_mitigated_lookup_table@Ustate_transition_pair@__crt_stdio_output@@$0IA@@1@B 00428e68     libucrt:output.obj
 0002:00000f68       ?format_validation_lookup_table_spectre@__crt_stdio_output@@3V?$spectre_mitigated_lookup_table@Ustate_transition_pair@__crt_stdio_output@@$0IA@@1@B 00428f68     libucrt:output.obj
 0002:00001068       ??_C@_1O@CEDCILHN@?$AA?$CI?$AAn?$AAu?$AAl?$AAl?$AA?$CJ@ 00429068     libucrt:output.obj
 0002:00001078       ??_C@_06OJHGLDPL@?$CInull?$CJ@ 00429078     libucrt:output.obj
 0002:00001080       ?large_power_data@?1??multiply_by_power_of_ten@__crt_strtox@@YA_NAAUbig_integer@2@I@Z@4QBIB 00429080     libucrt:atof.obj
 0002:00001988       ?large_power_indices@?1??multiply_by_power_of_ten@__crt_strtox@@YA_NAAUbig_integer@2@I@Z@4QBUunpack_index@?1??12@YA_N0I@Z@B 00429988     libucrt:atof.obj
 0002:00001a20       ?small_powers_of_ten@?1??multiply_by_power_of_ten@__crt_strtox@@YA_NAAUbig_integer@2@I@Z@4QBIB 00429a20     libucrt:atof.obj
 0002:00001a48       ??_C@_1GE@DPGDJKLM@?$AAm?$AAi?$AAn?$AAk?$AAe?$AAr?$AAn?$AAe?$AAl?$AA?2?$AAc?$AAr?$AAt?$AAs?$AA?2@ 00429a48     libucrt:atof.obj
 0002:00001ab0       ??_C@_1FM@FELNCOBF@?$AA_?$AA_?$AAc?$AAr?$AAt?$AA_?$AAs?$AAt?$AAr?$AAt?$AAo?$AAx?$AA?3?$AA?3?$AAf@ 00429ab0     libucrt:atof.obj
 0002:00001b0c       ??_C@_1BG@GEMHBGAF@?$AA_?$AAi?$AAs?$AA_?$AAd?$AAo?$AAu?$AAb?$AAl?$AAe@ 00429b0c     libucrt:atof.obj
 0002:00001b28       ??_C@_1FK@JOJELFFO@?$AA_?$AA_?$AAc?$AAr?$AAt?$AA_?$AAs?$AAt?$AAr?$AAt?$AAo?$AAx?$AA?3?$AA?3?$AAf@ 00429b28     libucrt:atof.obj
 0002:00001b84       ??_C@_1BI@BANMPGJI@?$AA?$CB?$AA_?$AAi?$AAs?$AA_?$AAd?$AAo?$AAu?$AAb?$AAl?$AAe@ 00429b84     libucrt:atof.obj
 0002:00001b9c       ?inf_uppercase@?1???$parse_floating_point_possible_infinity@DV?$c_string_character_source@D@__crt_strtox@@PBD@__crt_strtox@@YA?AW4floating_point_parse_result@1@AADAAV?$c_string_character_source@D@1@PBD@Z@4QBDB 00429b9c     libucrt:atof.obj
 0002:00001ba0       ?inf_lowercase@?1???$parse_floating_point_possible_infinity@DV?$c_string_character_source@D@__crt_strtox@@PBD@__crt_strtox@@YA?AW4floating_point_parse_result@1@AADAAV?$c_string_character_source@D@1@PBD@Z@4QBDB 00429ba0     libucrt:atof.obj
 0002:00001ba4       ?inity_uppercase@?1???$parse_floating_point_possible_infinity@DV?$c_string_character_source@D@__crt_strtox@@PBD@__crt_strtox@@YA?AW4floating_point_parse_result@1@AADAAV?$c_string_character_source@D@1@PBD@Z@4QBDB 00429ba4     libucrt:atof.obj
 0002:00001bac       ?inity_lowercase@?1???$parse_floating_point_possible_infinity@DV?$c_string_character_source@D@__crt_strtox@@PBD@__crt_strtox@@YA?AW4floating_point_parse_result@1@AADAAV?$c_string_character_source@D@1@PBD@Z@4QBDB 00429bac     libucrt:atof.obj
 0002:00001bb4       ?uppercase@?1???$parse_floating_point_possible_nan@DV?$c_string_character_source@D@__crt_strtox@@PBD@__crt_strtox@@YA?AW4floating_point_parse_result@1@AADAAV?$c_string_character_source@D@1@PBD@Z@4QBDB 00429bb4     libucrt:atof.obj
 0002:00001bb8       ?lowercase@?1???$parse_floating_point_possible_nan@DV?$c_string_character_source@D@__crt_strtox@@PBD@__crt_strtox@@YA?AW4floating_point_parse_result@1@AADAAV?$c_string_character_source@D@1@PBD@Z@4QBDB 00429bb8     libucrt:atof.obj
 0002:00001bbc       ?uppercase@?1???$parse_floating_point_possible_nan_is_snan@DV?$c_string_character_source@D@__crt_strtox@@@__crt_strtox@@YA_NAADAAV?$c_string_character_source@D@1@@Z@4QBDB 00429bbc     libucrt:atof.obj
 0002:00001bc4       ?lowercase@?1???$parse_floating_point_possible_nan_is_snan@DV?$c_string_character_source@D@__crt_strtox@@@__crt_strtox@@YA_NAADAAV?$c_string_character_source@D@1@@Z@4QBDB 00429bc4     libucrt:atof.obj
 0002:00001bcc       ?uppercase@?1???$parse_floating_point_possible_nan_is_ind@DV?$c_string_character_source@D@__crt_strtox@@@__crt_strtox@@YA_NAADAAV?$c_string_character_source@D@1@@Z@4QBDB 00429bcc     libucrt:atof.obj
 0002:00001bd0       ?lowercase@?1???$parse_floating_point_possible_nan_is_ind@DV?$c_string_character_source@D@__crt_strtox@@@__crt_strtox@@YA_NAADAAV?$c_string_character_source@D@1@@Z@4QBDB 00429bd0     libucrt:atof.obj
 0002:00001bd8       ?constraints@?1??is_length_valid@__crt_stdio_input@@YA_NW4conversion_mode@2@W4length_modifier@2@@Z@4QAY0M@$$CBEA 00429bd8     libucrt:input.obj
 0002:00001c50       ?inf_uppercase@?1???$parse_floating_point_possible_infinity@DV?$input_adapter_character_source@V?$string_input_adapter@D@__crt_stdio_input@@@__crt_strtox@@_K@__crt_strtox@@YA?AW4floating_point_parse_result@1@AADAAV?$input_adapter_character_source@V?$string_input_adapter@D@__crt_stdio_input@@@1@_K@Z@4QBDB 00429c50     libucrt:input.obj
 0002:00001c54       ?inf_lowercase@?1???$parse_floating_point_possible_infinity@DV?$input_adapter_character_source@V?$string_input_adapter@D@__crt_stdio_input@@@__crt_strtox@@_K@__crt_strtox@@YA?AW4floating_point_parse_result@1@AADAAV?$input_adapter_character_source@V?$string_input_adapter@D@__crt_stdio_input@@@1@_K@Z@4QBDB 00429c54     libucrt:input.obj
 0002:00001c58       ?inity_uppercase@?1???$parse_floating_point_possible_infinity@DV?$input_adapter_character_source@V?$string_input_adapter@D@__crt_stdio_input@@@__crt_strtox@@_K@__crt_strtox@@YA?AW4floating_point_parse_result@1@AADAAV?$input_adapter_character_source@V?$string_input_adapter@D@__crt_stdio_input@@@1@_K@Z@4QBDB 00429c58     libucrt:input.obj
 0002:00001c60       ?inity_lowercase@?1???$parse_floating_point_possible_infinity@DV?$input_adapter_character_source@V?$string_input_adapter@D@__crt_stdio_input@@@__crt_strtox@@_K@__crt_strtox@@YA?AW4floating_point_parse_result@1@AADAAV?$input_adapter_character_source@V?$string_input_adapter@D@__crt_stdio_input@@@1@_K@Z@4QBDB 00429c60     libucrt:input.obj
 0002:00001c68       ?uppercase@?1???$parse_floating_point_possible_nan@DV?$input_adapter_character_source@V?$string_input_adapter@D@__crt_stdio_input@@@__crt_strtox@@_K@__crt_strtox@@YA?AW4floating_point_parse_result@1@AADAAV?$input_adapter_character_source@V?$string_input_adapter@D@__crt_stdio_input@@@1@_K@Z@4QBDB 00429c68     libucrt:input.obj
 0002:00001c6c       ?lowercase@?1???$parse_floating_point_possible_nan@DV?$input_adapter_character_source@V?$string_input_adapter@D@__crt_stdio_input@@@__crt_strtox@@_K@__crt_strtox@@YA?AW4floating_point_parse_result@1@AADAAV?$input_adapter_character_source@V?$string_input_adapter@D@__crt_stdio_input@@@1@_K@Z@4QBDB 00429c6c     libucrt:input.obj
 0002:00001c70       ?uppercase@?1???$parse_floating_point_possible_nan_is_snan@DV?$input_adapter_character_source@V?$string_input_adapter@D@__crt_stdio_input@@@__crt_strtox@@@__crt_strtox@@YA_NAADAAV?$input_adapter_character_source@V?$string_input_adapter@D@__crt_stdio_input@@@1@@Z@4QBDB 00429c70     libucrt:input.obj
 0002:00001c78       ?lowercase@?1???$parse_floating_point_possible_nan_is_snan@DV?$input_adapter_character_source@V?$string_input_adapter@D@__crt_stdio_input@@@__crt_strtox@@@__crt_strtox@@YA_NAADAAV?$input_adapter_character_source@V?$string_input_adapter@D@__crt_stdio_input@@@1@@Z@4QBDB 00429c78     libucrt:input.obj
 0002:00001c80       ?uppercase@?1???$parse_floating_point_possible_nan_is_ind@DV?$input_adapter_character_source@V?$string_input_adapter@D@__crt_stdio_input@@@__crt_strtox@@@__crt_strtox@@YA_NAADAAV?$input_adapter_character_source@V?$string_input_adapter@D@__crt_stdio_input@@@1@@Z@4QBDB 00429c80     libucrt:input.obj
 0002:00001c84       ?lowercase@?1???$parse_floating_point_possible_nan_is_ind@DV?$input_adapter_character_source@V?$string_input_adapter@D@__crt_stdio_input@@@__crt_strtox@@@__crt_strtox@@YA_NAADAAV?$input_adapter_character_source@V?$string_input_adapter@D@__crt_stdio_input@@@1@@Z@4QBDB 00429c84     libucrt:input.obj
 0002:00001c88       ___acrt_exception_action_table 00429c88     libucrt:exception_filter.obj
 0002:00001d18       ___acrt_signal_action_table_count 00429d18     libucrt:exception_filter.obj
 0002:00001d1c       ___acrt_signal_action_first_fpe_index 00429d1c     libucrt:exception_filter.obj
 0002:00001d20       ___acrt_signal_action_fpe_count 00429d20     libucrt:exception_filter.obj
 0002:00001d24       ??_C@_1BI@BGOHAHKC@?$AAm?$AAs?$AAc?$AAo?$AAr?$AAe?$AAe?$AA?4?$AAd?$AAl?$AAl@ 00429d24     libucrt:exit.obj
 0002:00001d3c       ??_C@_0P@MIGLKIOC@CorExitProcess@ 00429d3c     libucrt:exit.obj
 0002:00001f38       ___lc_time_c               00429f38     libucrt:nlsdata.obj
 0002:0000209c       ??_C@_03KOEHGMDN@Sun@      0042a09c     libucrt:nlsdata.obj
 0002:000020a0       ??_C@_03PDAGKDH@Mon@       0042a0a0     libucrt:nlsdata.obj
 0002:000020a4       ??_C@_03NAGEINEP@Tue@      0042a0a4     libucrt:nlsdata.obj
 0002:000020a8       ??_C@_03MHOMLAJA@Wed@      0042a0a8     libucrt:nlsdata.obj
 0002:000020ac       ??_C@_03IOFIKPDN@Thu@      0042a0ac     libucrt:nlsdata.obj
 0002:000020b0       ??_C@_03IDIOELNC@Fri@      0042a0b0     libucrt:nlsdata.obj
 0002:000020b4       ??_C@_03FEFJNEK@Sat@       0042a0b4     libucrt:nlsdata.obj
 0002:000020b8       ??_C@_06OOPIFAJ@Sunday@    0042a0b8     libucrt:nlsdata.obj
 0002:000020c0       ??_C@_06JLEDEDGH@Monday@   0042a0c0     libucrt:nlsdata.obj
 0002:000020c8       ??_C@_07BAAGCFCM@Tuesday@  0042a0c8     libucrt:nlsdata.obj
 0002:000020d0       ??_C@_09DLIGFAKA@Wednesday@ 0042a0d0     libucrt:nlsdata.obj
 0002:000020dc       ??_C@_08HACCIKIA@Thursday@ 0042a0dc     libucrt:nlsdata.obj
 0002:000020e8       ??_C@_06JECMNKMI@Friday@   0042a0e8     libucrt:nlsdata.obj
 0002:000020f0       ??_C@_08INBOOONO@Saturday@ 0042a0f0     libucrt:nlsdata.obj
 0002:000020fc       ??_C@_03JIHJHPIE@Jan@      0042a0fc     libucrt:nlsdata.obj
 0002:00002100       ??_C@_03HJBDCHOM@Feb@      0042a100     libucrt:nlsdata.obj
 0002:00002104       ??_C@_03ODNJBKGA@Mar@      0042a104     libucrt:nlsdata.obj
 0002:00002108       ??_C@_03LEOLGMJP@Apr@      0042a108     libucrt:nlsdata.obj
 0002:0000210c       ??_C@_03CNMDKL@May@        0042a10c     libucrt:nlsdata.obj
 0002:00002110       ??_C@_03IDFGHECI@Jun@      0042a110     libucrt:nlsdata.obj
 0002:00002114       ??_C@_03LBGABGKK@Jul@      0042a114     libucrt:nlsdata.obj
 0002:00002118       ??_C@_03IFJFEIGA@Aug@      0042a118     libucrt:nlsdata.obj
 0002:0000211c       ??_C@_03GGCAPAJC@Sep@      0042a11c     libucrt:nlsdata.obj
 0002:00002120       ??_C@_03BMAOKBAD@Oct@      0042a120     libucrt:nlsdata.obj
 0002:00002124       ??_C@_03JPJOFNIA@Nov@      0042a124     libucrt:nlsdata.obj
 0002:00002128       ??_C@_03MKABNOCG@Dec@      0042a128     libucrt:nlsdata.obj
 0002:0000212c       ??_C@_07CGJPFGJA@January@  0042a12c     libucrt:nlsdata.obj
 0002:00002134       ??_C@_08GNJGEPFN@February@ 0042a134     libucrt:nlsdata.obj
 0002:00002140       ??_C@_05HPCKOFNC@March@    0042a140     libucrt:nlsdata.obj
 0002:00002148       ??_C@_05DMJDNLEJ@April@    0042a148     libucrt:nlsdata.obj
 0002:00002150       ??_C@_04CNLMGBGM@June@     0042a150     libucrt:nlsdata.obj
 0002:00002158       ??_C@_04MIEPOIFP@July@     0042a158     libucrt:nlsdata.obj
 0002:00002160       ??_C@_06LBBHFDDG@August@   0042a160     libucrt:nlsdata.obj
 0002:00002168       ??_C@_09BHHEALKD@September@ 0042a168     libucrt:nlsdata.obj
 0002:00002174       ??_C@_07JJNFCEND@October@  0042a174     libucrt:nlsdata.obj
 0002:0000217c       ??_C@_08HCHEGEOA@November@ 0042a17c     libucrt:nlsdata.obj
 0002:00002188       ??_C@_08EDHMEBNP@December@ 0042a188     libucrt:nlsdata.obj
 0002:00002194       ??_C@_02DEDBPAFC@AM@       0042a194     libucrt:nlsdata.obj
 0002:00002198       ??_C@_02CJNFDJBF@PM@       0042a198     libucrt:nlsdata.obj
 0002:0000219c       ??_C@_08BPBNCDIB@MM?1dd?1yy@ 0042a19c     libucrt:nlsdata.obj
 0002:000021a8       ??_C@_0BE@CKGJFCPC@dddd?0?5MMMM?5dd?0?5yyyy@ 0042a1a8     libucrt:nlsdata.obj
 0002:000021bc       ??_C@_08JCCMCCIL@HH?3mm?3ss@ 0042a1bc     libucrt:nlsdata.obj
 0002:000021c8       ??_C@_17MBGCMIPB@?$AAS?$AAu?$AAn@ 0042a1c8     libucrt:nlsdata.obj
 0002:000021d0       ??_C@_17KBOMKBF@?$AAM?$AAo?$AAn@ 0042a1d0     libucrt:nlsdata.obj
 0002:000021d8       ??_C@_17BMKGEGOJ@?$AAT?$AAu?$AAe@ 0042a1d8     libucrt:nlsdata.obj
 0002:000021e0       ??_C@_17CJEDCEPE@?$AAW?$AAe?$AAd@ 0042a1e0     libucrt:nlsdata.obj
 0002:000021e8       ??_C@_17PDPHAADD@?$AAT?$AAh?$AAu@ 0042a1e8     libucrt:nlsdata.obj
 0002:000021f0       ??_C@_17HFOLPPLP@?$AAF?$AAr?$AAi@ 0042a1f0     libucrt:nlsdata.obj
 0002:000021f8       ??_C@_17GGIBDPIH@?$AAS?$AAa?$AAt@ 0042a1f8     libucrt:nlsdata.obj
 0002:00002200       ??_C@_1O@IHNHDHPB@?$AAS?$AAu?$AAn?$AAd?$AAa?$AAy@ 0042a200     libucrt:nlsdata.obj
 0002:00002210       ??_C@_1O@MMNBFLIA@?$AAM?$AAo?$AAn?$AAd?$AAa?$AAy@ 0042a210     libucrt:nlsdata.obj
 0002:00002220       ??_C@_1BA@ENFBFFEK@?$AAT?$AAu?$AAe?$AAs?$AAd?$AAa?$AAy@ 0042a220     libucrt:nlsdata.obj
 0002:00002230       ??_C@_1BE@EBOGMDOH@?$AAW?$AAe?$AAd?$AAn?$AAe?$AAs?$AAd?$AAa?$AAy@ 0042a230     libucrt:nlsdata.obj
 0002:00002244       ??_C@_1BC@HHMNLIHE@?$AAT?$AAh?$AAu?$AAr?$AAs?$AAd?$AAa?$AAy@ 0042a244     libucrt:nlsdata.obj
 0002:00002258       ??_C@_1O@PDICJHAG@?$AAF?$AAr?$AAi?$AAd?$AAa?$AAy@ 0042a258     libucrt:nlsdata.obj
 0002:00002268       ??_C@_1BC@ENMNNPAJ@?$AAS?$AAa?$AAt?$AAu?$AAr?$AAd?$AAa?$AAy@ 0042a268     libucrt:nlsdata.obj
 0002:0000227c       ??_C@_17DKNBKCHM@?$AAJ?$AAa?$AAn@ 0042a27c     libucrt:nlsdata.obj
 0002:00002284       ??_C@_17LMDJEKJN@?$AAF?$AAe?$AAb@ 0042a284     libucrt:nlsdata.obj
 0002:0000228c       ??_C@_17CKNLEDEC@?$AAM?$AAa?$AAr@ 0042a28c     libucrt:nlsdata.obj
 0002:00002294       ??_C@_17LFPOIHDD@?$AAA?$AAp?$AAr@ 0042a294     libucrt:nlsdata.obj
 0002:0000229c       ??_C@_17PNNKMEED@?$AAM?$AAa?$AAy@ 0042a29c     libucrt:nlsdata.obj
 0002:000022a4       ??_C@_17KCJGOCPB@?$AAJ?$AAu?$AAn@ 0042a2a4     libucrt:nlsdata.obj
 0002:000022ac       ??_C@_17IJPCKHK@?$AAJ?$AAu?$AAl@ 0042a2ac     libucrt:nlsdata.obj
 0002:000022b4       ??_C@_17ICPELBCN@?$AAA?$AAu?$AAg@ 0042a2b4     libucrt:nlsdata.obj
 0002:000022bc       ??_C@_17HCHCOKMG@?$AAS?$AAe?$AAp@ 0042a2bc     libucrt:nlsdata.obj
 0002:000022c4       ??_C@_17FNLKOI@?$AAO?$AAc?$AAt@ 0042a2c4     libucrt:nlsdata.obj
 0002:000022cc       ??_C@_17BBDMLCIG@?$AAN?$AAo?$AAv@ 0042a2cc     libucrt:nlsdata.obj
 0002:000022d4       ??_C@_17EGKACKIF@?$AAD?$AAe?$AAc@ 0042a2d4     libucrt:nlsdata.obj
 0002:000022dc       ??_C@_1BA@EFMEIEBA@?$AAJ?$AAa?$AAn?$AAu?$AAa?$AAr?$AAy@ 0042a2dc     libucrt:nlsdata.obj
 0002:000022ec       ??_C@_1BC@JGDDFFAM@?$AAF?$AAe?$AAb?$AAr?$AAu?$AAa?$AAr?$AAy@ 0042a2ec     libucrt:nlsdata.obj
 0002:00002300       ??_C@_1M@IKEENEDF@?$AAM?$AAa?$AAr?$AAc?$AAh@ 0042a300     libucrt:nlsdata.obj
 0002:0000230c       ??_C@_1M@GJNLMHFD@?$AAA?$AAp?$AAr?$AAi?$AAl@ 0042a30c     libucrt:nlsdata.obj
 0002:00002318       ??_C@_19EPFLPGAP@?$AAJ?$AAu?$AAn?$AAe@ 0042a318     libucrt:nlsdata.obj
 0002:00002324       ??_C@_19BIFMLPCD@?$AAJ?$AAu?$AAl?$AAy@ 0042a324     libucrt:nlsdata.obj
 0002:00002330       ??_C@_1O@PAHLKOAC@?$AAA?$AAu?$AAg?$AAu?$AAs?$AAt@ 0042a330     libucrt:nlsdata.obj
 0002:00002340       ??_C@_1BE@DKAAMBJL@?$AAS?$AAe?$AAp?$AAt?$AAe?$AAm?$AAb?$AAe?$AAr@ 0042a340     libucrt:nlsdata.obj
 0002:00002354       ??_C@_1BA@EPANDLNG@?$AAO?$AAc?$AAt?$AAo?$AAb?$AAe?$AAr@ 0042a354     libucrt:nlsdata.obj
 0002:00002364       ??_C@_1BC@BGLIFPF@?$AAN?$AAo?$AAv?$AAe?$AAm?$AAb?$AAe?$AAr@ 0042a364     libucrt:nlsdata.obj
 0002:00002378       ??_C@_1BC@FEMKIFH@?$AAD?$AAe?$AAc?$AAe?$AAm?$AAb?$AAe?$AAr@ 0042a378     libucrt:nlsdata.obj
 0002:0000238c       ??_C@_15ODEHAHHF@?$AAA?$AAM@ 0042a38c     libucrt:nlsdata.obj
 0002:00002394       ??_C@_15CLMNNGEL@?$AAP?$AAM@ 0042a394     libucrt:nlsdata.obj
 0002:0000239c       ??_C@_1BC@IEBCMHCM@?$AAM?$AAM?$AA?1?$AAd?$AAd?$AA?1?$AAy?$AAy@ 0042a39c     libucrt:nlsdata.obj
 0002:000023b0       ??_C@_1CI@KNAKOEBC@?$AAd?$AAd?$AAd?$AAd?$AA?0?$AA?5?$AAM?$AAM?$AAM?$AAM?$AA?5?$AAd?$AAd?$AA?0?$AA?5@ 0042a3b0     libucrt:nlsdata.obj
 0002:000023d8       ??_C@_1BC@GDGBMEMK@?$AAH?$AAH?$AA?3?$AAm?$AAm?$AA?3?$AAs?$AAs@ 0042a3d8     libucrt:nlsdata.obj
 0002:000023ec       ??_C@_1M@BMHNFIME@?$AAe?$AAn?$AA?9?$AAU?$AAS@ 0042a3ec     libucrt:nlsdata.obj
 0002:000023f8       ?ccs@?1???$__acrt_stdio_parse_mode@D@@YA?AU__acrt_stdio_stream_mode@@QBD@Z@4QBDB 0042a3f8     libucrt:openfile.obj
 0002:000023fc       ?utf8_encoding@?1???$__acrt_stdio_parse_mode@D@@YA?AU__acrt_stdio_stream_mode@@QBD@Z@4QBDB 0042a3fc     libucrt:openfile.obj
 0002:00002404       ?utf16_encoding@?1???$__acrt_stdio_parse_mode@D@@YA?AU__acrt_stdio_stream_mode@@QBD@Z@4QBDB 0042a404     libucrt:openfile.obj
 0002:0000240c       ?unicode_encoding@?1???$__acrt_stdio_parse_mode@D@@YA?AU__acrt_stdio_stream_mode@@QBD@Z@4QBDB 0042a40c     libucrt:openfile.obj
 0002:00002418       ___newctype                0042a418     libucrt:ctype.obj
 0002:00002718       ___newclmap                0042a718     libucrt:ctype.obj
 0002:00002898       ___newcumap                0042a898     libucrt:ctype.obj
 0002:00002a18       __wctype                   0042aa18     libucrt:ctype.obj
 0002:00002c60       ??_C@_03OEIAHPBN@INF@      0042ac60     libucrt:cvt.obj
 0002:00002c64       ??_C@_03OJHLLCGB@inf@      0042ac64     libucrt:cvt.obj
 0002:00002c68       ??_C@_03LKNCIKJB@NAN@      0042ac68     libucrt:cvt.obj
 0002:00002c6c       ??_C@_03LHCJEHON@nan@      0042ac6c     libucrt:cvt.obj
 0002:00002c70       ??_C@_09OFJJIMPC@NAN?$CISNAN?$CJ@ 0042ac70     libucrt:cvt.obj
 0002:00002c7c       ??_C@_09IPFBKMDL@nan?$CIsnan?$CJ@ 0042ac7c     libucrt:cvt.obj
 0002:00002c88       ??_C@_08IKHNHAJ@NAN?$CIIND?$CJ@ 0042ac88     libucrt:cvt.obj
 0002:00002c94       ??_C@_08OFCDMILK@nan?$CIind?$CJ@ 0042ac94     libucrt:cvt.obj
 0002:00002ca0       ??_C@_05KLBDPFGC@e?$CL000@ 0042aca0     libucrt:cvt.obj
 0002:00002cf8       ??_C@_1EA@JGEFHKEI@?$AAa?$AAp?$AAi?$AA?9?$AAm?$AAs?$AA?9?$AAw?$AAi?$AAn?$AA?9?$AAc?$AAo?$AAr?$AAe@ 0042acf8     libucrt:winapi_thunks.obj
 0002:00002d38       ??_C@_1DI@IJCEHOCB@?$AAa?$AAp?$AAi?$AA?9?$AAm?$AAs?$AA?9?$AAw?$AAi?$AAn?$AA?9?$AAc?$AAo?$AAr?$AAe@ 0042ad38     libucrt:winapi_thunks.obj
 0002:00002d70       ??_C@_1EI@MPIAOHOC@?$AAa?$AAp?$AAi?$AA?9?$AAm?$AAs?$AA?9?$AAw?$AAi?$AAn?$AA?9?$AAc?$AAo?$AAr?$AAe@ 0042ad70     libucrt:winapi_thunks.obj
 0002:00002db8       ??_C@_1FK@FPHCKFIE@?$AAa?$AAp?$AAi?$AA?9?$AAm?$AAs?$AA?9?$AAw?$AAi?$AAn?$AA?9?$AAc?$AAo?$AAr?$AAe@ 0042adb8     libucrt:winapi_thunks.obj
 0002:00002e18       ??_C@_1EM@DILCGIIO@?$AAa?$AAp?$AAi?$AA?9?$AAm?$AAs?$AA?9?$AAw?$AAi?$AAn?$AA?9?$AAc?$AAo?$AAr?$AAe@ 0042ae18     libucrt:winapi_thunks.obj
 0002:00002e64       ??_C@_1DM@LNCGDDPN@?$AAa?$AAp?$AAi?$AA?9?$AAm?$AAs?$AA?9?$AAw?$AAi?$AAn?$AA?9?$AAc?$AAo?$AAr?$AAe@ 0042ae64     libucrt:winapi_thunks.obj
 0002:00002ea0       ??_C@_1DO@FPAPJEMD@?$AAa?$AAp?$AAi?$AA?9?$AAm?$AAs?$AA?9?$AAw?$AAi?$AAn?$AA?9?$AAc?$AAo?$AAr?$AAe@ 0042aea0     libucrt:winapi_thunks.obj
 0002:00002ee0       ??_C@_1DK@NDHNAHIO@?$AAa?$AAp?$AAi?$AA?9?$AAm?$AAs?$AA?9?$AAw?$AAi?$AAn?$AA?9?$AAc?$AAo?$AAr?$AAe@ 0042aee0     libucrt:winapi_thunks.obj
 0002:00002f1c       ??_C@_1DM@KGHDGBCM@?$AAa?$AAp?$AAi?$AA?9?$AAm?$AAs?$AA?9?$AAw?$AAi?$AAn?$AA?9?$AAc?$AAo?$AAr?$AAe@ 0042af1c     libucrt:winapi_thunks.obj
 0002:00002f58       ??_C@_1EO@IJIOEFOH@?$AAa?$AAp?$AAi?$AA?9?$AAm?$AAs?$AA?9?$AAw?$AAi?$AAn?$AA?9?$AAr?$AAt?$AAc?$AAo@ 0042af58     libucrt:winapi_thunks.obj
 0002:00002fa8       ??_C@_1FG@HHGEKANL@?$AAa?$AAp?$AAi?$AA?9?$AAm?$AAs?$AA?9?$AAw?$AAi?$AAn?$AA?9?$AAs?$AAe?$AAc?$AAu@ 0042afa8     libucrt:winapi_thunks.obj
 0002:00003000       ??_C@_1EG@DBIOJECG@?$AAe?$AAx?$AAt?$AA?9?$AAm?$AAs?$AA?9?$AAw?$AAi?$AAn?$AA?9?$AAn?$AAt?$AAu?$AAs@ 0042b000     libucrt:winapi_thunks.obj
 0002:00003048       ??_C@_1EO@FIHMJCLF@?$AAe?$AAx?$AAt?$AA?9?$AAm?$AAs?$AA?9?$AAw?$AAi?$AAn?$AA?9?$AAn?$AAt?$AAu?$AAs@ 0042b048     libucrt:winapi_thunks.obj
 0002:00003098       ??_C@_1BC@DNHGCMLG@?$AAa?$AAd?$AAv?$AAa?$AAp?$AAi?$AA3?$AA2@ 0042b098     libucrt:winapi_thunks.obj
 0002:000030ac       ??_C@_1M@OAIMIKLP@?$AAn?$AAt?$AAd?$AAl?$AAl@ 0042b0ac     libucrt:winapi_thunks.obj
 0002:000030b8       ??_C@_1EG@DPGNFKGC@?$AAa?$AAp?$AAi?$AA?9?$AAm?$AAs?$AA?9?$AAw?$AAi?$AAn?$AA?9?$AAa?$AAp?$AAp?$AAm@ 0042b0b8     libucrt:winapi_thunks.obj
 0002:00003100       ??_C@_1O@BCCLBEOE@?$AAu?$AAs?$AAe?$AAr?$AA3?$AA2@ 0042b100     libucrt:winapi_thunks.obj
 0002:00003110       ??_C@_1DM@BPJLHKCE@?$AAa?$AAp?$AAi?$AA?9?$AAm?$AAs?$AA?9?$AAw?$AAi?$AAn?$AA?9?$AAc?$AAo?$AAr?$AAe@ 0042b110     libucrt:winapi_thunks.obj
 0002:0000314c       ??_C@_1BA@IAIFMGEF@?$AAe?$AAx?$AAt?$AA?9?$AAm?$AAs?$AA?9@ 0042b14c     libucrt:winapi_thunks.obj
 0002:00003160       ??_C@_0BA@FHFNEAED@AreFileApisANSI@ 0042b160     libucrt:winapi_thunks.obj
 0002:00003178       ??_C@_0BA@IHGNDAEB@CompareStringEx@ 0042b178     libucrt:winapi_thunks.obj
 0002:00003198       ??_C@_0O@KKBNKAPF@LCMapStringEx@ 0042b198     libucrt:winapi_thunks.obj
 0002:000031b0       ??_C@_0BB@HBDEELFH@LocaleNameToLCID@ 0042b1b0     libucrt:winapi_thunks.obj
 0002:000031c8       ??_C@_0CF@OJOFEIGO@AppPolicyGetProcessTerminationM@ 0042b1c8     libucrt:winapi_thunks.obj
 0002:00003210       ___dnames                  0042b210     libucrt:timeset.obj
 0002:00003228       ___mnames                  0042b228     libucrt:timeset.obj
 0002:00003250       ??_C@_15HNJCPLHL@?$AAT?$AAZ@ 0042b250     libucrt:tzset.obj
 0002:00003258       __days                     0042b258     libucrt:days.obj
 0002:0000328c       __lpdays                   0042b28c     libucrt:days.obj
 0002:000032d0       ??_C@_1M@HPNHIDJI@?$AAj?$AAa?$AA?9?$AAJ?$AAP@ 0042b2d0     libucrt:mbctype.obj
 0002:000032dc       ??_C@_1M@BIBDDEMK@?$AAz?$AAh?$AA?9?$AAC?$AAN@ 0042b2dc     libucrt:mbctype.obj
 0002:000032e8       ??_C@_1M@JLOOOEGK@?$AAk?$AAo?$AA?9?$AAK?$AAR@ 0042b2e8     libucrt:mbctype.obj
 0002:000032f4       ??_C@_1M@CLNBBOPM@?$AAz?$AAh?$AA?9?$AAT?$AAW@ 0042b2f4     libucrt:mbctype.obj
 0002:00003300       ??_C@_15PJPFLCCM@?$AAu?$AAk@ 0042b300     libucrt:get_qualified_locale.obj
 0002:00003308       ??_C@_01GBGANLPD@0@        0042b308     libucrt:cfout.obj
 0002:0000330c       ??_C@_05DNEBIAHO@1?$CDINF@ 0042b30c     libucrt:cfout.obj
 0002:00003314       ??_C@_06IMKFLFPG@1?$CDQNAN@ 0042b314     libucrt:cfout.obj
 0002:0000331c       ??_C@_06PGGFOGJG@1?$CDSNAN@ 0042b31c     libucrt:cfout.obj
 0002:00003324       ??_C@_05PHHOCPM@1?$CDIND@  0042b324     libucrt:cfout.obj
 0002:00003a50       ??_C@_15EMKDOKLE@?$AAa?$AAr@ 0042ba50     libucrt:lcidtoname_downlevel.obj
 0002:00003a58       ??_C@_15KNPADPLH@?$AAb?$AAg@ 0042ba58     libucrt:lcidtoname_downlevel.obj
 0002:00003a60       ??_C@_15EDMHLDMO@?$AAc?$AAa@ 0042ba60     libucrt:lcidtoname_downlevel.obj
 0002:00003a68       ??_C@_1O@BPEAJADD@?$AAz?$AAh?$AA?9?$AAC?$AAH?$AAS@ 0042ba68     libucrt:lcidtoname_downlevel.obj
 0002:00003a78       ??_C@_15LJNHCMNK@?$AAc?$AAs@ 0042ba78     libucrt:lcidtoname_downlevel.obj
 0002:00003a80       ??_C@_15FOMCIDHG@?$AAd?$AAa@ 0042ba80     libucrt:lcidtoname_downlevel.obj
 0002:00003a88       ??_C@_15NBKABECB@?$AAd?$AAe@ 0042ba88     libucrt:lcidtoname_downlevel.obj
 0002:00003a90       ??_C@_15GHPEIIAO@?$AAe?$AAl@ 0042ba90     libucrt:lcidtoname_downlevel.obj
 0002:00003a98       ??_C@_15MNPNEAIF@?$AAe?$AAn@ 0042ba98     libucrt:lcidtoname_downlevel.obj
 0002:00003aa0       ??_C@_15GPIOMPMH@?$AAe?$AAs@ 0042baa0     libucrt:lcidtoname_downlevel.obj
 0002:00003aa8       ??_C@_15NGLOAKJC@?$AAf?$AAi@ 0042baa8     libucrt:lcidtoname_downlevel.obj
 0002:00003ab0       ??_C@_15FBKGNKAM@?$AAf?$AAr@ 0042bab0     libucrt:lcidtoname_downlevel.obj
 0002:00003ab8       ??_C@_15KGGCNEFK@?$AAh?$AAe@ 0042bab8     libucrt:lcidtoname_downlevel.obj
 0002:00003ac0       ??_C@_15PGHLIDMF@?$AAh?$AAu@ 0042bac0     libucrt:lcidtoname_downlevel.obj
 0002:00003ac8       ??_C@_15BIEMAPLM@?$AAi?$AAs@ 0042bac8     libucrt:lcidtoname_downlevel.obj
 0002:00003ad0       ??_C@_15IFJLDHAF@?$AAi?$AAt@ 0042bad0     libucrt:lcidtoname_downlevel.obj
 0002:00003ad8       ??_C@_15GEMIOCAG@?$AAj?$AAa@ 0042bad8     libucrt:lcidtoname_downlevel.obj
 0002:00003ae0       ??_C@_15EPELEGJA@?$AAk?$AAo@ 0042bae0     libucrt:lcidtoname_downlevel.obj
 0002:00003ae8       ??_C@_15NDDHIMN@?$AAn?$AAl@ 0042bae8     libucrt:lcidtoname_downlevel.obj
 0002:00003af0       ??_C@_15BPIGNHCD@?$AAn?$AAo@ 0042baf0     libucrt:lcidtoname_downlevel.obj
 0002:00003af8       ??_C@_15DEOPBLCG@?$AAp?$AAl@ 0042baf8     libucrt:lcidtoname_downlevel.obj
 0002:00003b00       ??_C@_15KBECGEFG@?$AAp?$AAt@ 0042bb00     libucrt:lcidtoname_downlevel.obj
 0002:00003b08       ??_C@_15GLJCBFMD@?$AAr?$AAo@ 0042bb08     libucrt:lcidtoname_downlevel.obj
 0002:00003b10       ??_C@_15FEDGKCDI@?$AAr?$AAu@ 0042bb10     libucrt:lcidtoname_downlevel.obj
 0002:00003b18       ??_C@_15GLKMLLHM@?$AAh?$AAr@ 0042bb18     libucrt:lcidtoname_downlevel.obj
 0002:00003b20       ??_C@_15CPKMFBDB@?$AAs?$AAk@ 0042bb20     libucrt:lcidtoname_downlevel.obj
 0002:00003b28       ??_C@_15BAAIOGMK@?$AAs?$AAq@ 0042bb28     libucrt:lcidtoname_downlevel.obj
 0002:00003b30       ??_C@_15INNPNOHD@?$AAs?$AAv@ 0042bb30     libucrt:lcidtoname_downlevel.obj
 0002:00003b38       ??_C@_15CABMMOGH@?$AAt?$AAh@ 0042bb38     libucrt:lcidtoname_downlevel.obj
 0002:00003b40       ??_C@_15BPLIHJJM@?$AAt?$AAr@ 0042bb40     libucrt:lcidtoname_downlevel.obj
 0002:00003b48       ??_C@_15NEOEKKDJ@?$AAu?$AAr@ 0042bb48     libucrt:lcidtoname_downlevel.obj
 0002:00003b50       ??_C@_15NFICGAJK@?$AAi?$AAd@ 0042bb50     libucrt:lcidtoname_downlevel.obj
 0002:00003b58       ??_C@_15HPJPHDM@?$AAb?$AAe@ 0042bb58     libucrt:lcidtoname_downlevel.obj
 0002:00003b60       ??_C@_15LCHLGJII@?$AAs?$AAl@ 0042bb60     libucrt:lcidtoname_downlevel.obj
 0002:00003b68       ??_C@_15PCFJPHHO@?$AAe?$AAt@ 0042bb68     libucrt:lcidtoname_downlevel.obj
 0002:00003b70       ??_C@_15HPFPGODN@?$AAl?$AAv@ 0042bb70     libucrt:lcidtoname_downlevel.obj
 0002:00003b78       ??_C@_15NFFGKGLG@?$AAl?$AAt@ 0042bb78     libucrt:lcidtoname_downlevel.obj
 0002:00003b80       ??_C@_15BDAKCCHN@?$AAf?$AAa@ 0042bb80     libucrt:lcidtoname_downlevel.obj
 0002:00003b88       ??_C@_15NFGIAIAJ@?$AAv?$AAi@ 0042bb88     libucrt:lcidtoname_downlevel.obj
 0002:00003b90       ??_C@_15LMKNDMHN@?$AAh?$AAy@ 0042bb90     libucrt:lcidtoname_downlevel.obj
 0002:00003b98       ??_C@_15IJBHMCFL@?$AAa?$AAz@ 0042bb98     libucrt:lcidtoname_downlevel.obj
 0002:00003ba0       ??_C@_15EKOFJABL@?$AAe?$AAu@ 0042bba0     libucrt:lcidtoname_downlevel.obj
 0002:00003ba8       ??_C@_15BGHADCNK@?$AAm?$AAk@ 0042bba8     libucrt:lcidtoname_downlevel.obj
 0002:00003bb0       ??_C@_15JDNICKHM@?$AAa?$AAf@ 0042bbb0     libucrt:lcidtoname_downlevel.obj
 0002:00003bb8       ??_C@_15KPJEDBKD@?$AAk?$AAa@ 0042bbb8     libucrt:lcidtoname_downlevel.obj
 0002:00003bc0       ??_C@_15PDNFFFEO@?$AAf?$AAo@ 0042bbc0     libucrt:lcidtoname_downlevel.obj
 0002:00003bc8       ??_C@_15OMLEGLOC@?$AAh?$AAi@ 0042bbc8     libucrt:lcidtoname_downlevel.obj
 0002:00003bd0       ??_C@_15IDNNENKK@?$AAm?$AAs@ 0042bbd0     libucrt:lcidtoname_downlevel.obj
 0002:00003bd8       ??_C@_15MACJNBMH@?$AAk?$AAk@ 0042bbd8     libucrt:lcidtoname_downlevel.obj
 0002:00003be0       ??_C@_15DKDJEOND@?$AAk?$AAy@ 0042bbe0     libucrt:lcidtoname_downlevel.obj
 0002:00003be8       ??_C@_15DFGDLJBG@?$AAs?$AAw@ 0042bbe8     libucrt:lcidtoname_downlevel.obj
 0002:00003bf0       ??_C@_15BBFAICNG@?$AAu?$AAz@ 0042bbf0     libucrt:lcidtoname_downlevel.obj
 0002:00003bf8       ??_C@_15DKNDCGEA@?$AAt?$AAt@ 0042bbf8     libucrt:lcidtoname_downlevel.obj
 0002:00003c00       ??_C@_15MGIFMDPL@?$AAp?$AAa@ 0042bc00     libucrt:lcidtoname_downlevel.obj
 0002:00003c08       ??_C@_15HCNDBBA@?$AAg?$AAu@ 0042bc08     libucrt:lcidtoname_downlevel.obj
 0002:00003c10       ??_C@_15FNBEIBON@?$AAt?$AAa@ 0042bc10     libucrt:lcidtoname_downlevel.obj
 0002:00003c18       ??_C@_15NCHGBGLK@?$AAt?$AAe@ 0042bc18     libucrt:lcidtoname_downlevel.obj
 0002:00003c20       ??_C@_15PHPHCBPF@?$AAk?$AAn@ 0042bc20     libucrt:lcidtoname_downlevel.obj
 0002:00003c28       ??_C@_15DLGBCKMP@?$AAm?$AAr@ 0042bc28     libucrt:lcidtoname_downlevel.obj
 0002:00003c30       ??_C@_15EABBLBFF@?$AAs?$AAa@ 0042bc30     libucrt:lcidtoname_downlevel.obj
 0002:00003c38       ??_C@_15CBKOMCOI@?$AAm?$AAn@ 0042bc38     libucrt:lcidtoname_downlevel.obj
 0002:00003c40       ??_C@_15CKDMCJAF@?$AAg?$AAl@ 0042bc40     libucrt:lcidtoname_downlevel.obj
 0002:00003c48       ??_C@_17CNJFBPG@?$AAk?$AAo?$AAk@ 0042bc48     libucrt:lcidtoname_downlevel.obj
 0002:00003c50       ??_C@_17FFBJICPL@?$AAs?$AAy?$AAr@ 0042bc50     libucrt:lcidtoname_downlevel.obj
 0002:00003c58       ??_C@_17KPNDCPAF@?$AAd?$AAi?$AAv@ 0042bc58     libucrt:lcidtoname_downlevel.obj
 0002:00003c60       ??_C@_11LOCGONAA@@         0042bc60     libucrt:lcidtoname_downlevel.obj
 0002:00003c64       ??_C@_1M@OKAHONE@?$AAa?$AAr?$AA?9?$AAS?$AAA@ 0042bc64     libucrt:lcidtoname_downlevel.obj
 0002:00003c70       ??_C@_1M@FFFIGIGK@?$AAb?$AAg?$AA?9?$AAB?$AAG@ 0042bc70     libucrt:lcidtoname_downlevel.obj
 0002:00003c7c       ??_C@_1M@BJNKEDC@?$AAc?$AAa?$AA?9?$AAE?$AAS@ 0042bc7c     libucrt:lcidtoname_downlevel.obj
 0002:00003c88       ??_C@_1M@IJJHFJHA@?$AAc?$AAs?$AA?9?$AAC?$AAZ@ 0042bc88     libucrt:lcidtoname_downlevel.obj
 0002:00003c94       ??_C@_1M@CLPEOBGI@?$AAd?$AAa?$AA?9?$AAD?$AAK@ 0042bc94     libucrt:lcidtoname_downlevel.obj
 0002:00003ca0       ??_C@_1M@MCMADGCB@?$AAd?$AAe?$AA?9?$AAD?$AAE@ 0042bca0     libucrt:lcidtoname_downlevel.obj
 0002:00003cac       ??_C@_1M@OOCKEMAM@?$AAe?$AAl?$AA?9?$AAG?$AAR@ 0042bcac     libucrt:lcidtoname_downlevel.obj
 0002:00003cb8       ??_C@_1M@DDNJFGID@?$AAf?$AAi?$AA?9?$AAF?$AAI@ 0042bcb8     libucrt:lcidtoname_downlevel.obj
 0002:00003cc4       ??_C@_1M@GLIPPMAC@?$AAf?$AAr?$AA?9?$AAF?$AAR@ 0042bcc4     libucrt:lcidtoname_downlevel.obj
 0002:00003cd0       ??_C@_1M@GFMCHPE@?$AAh?$AAe?$AA?9?$AAI?$AAL@ 0042bcd0     libucrt:lcidtoname_downlevel.obj
 0002:00003cdc       ??_C@_1M@MHLPGNKM@?$AAh?$AAu?$AA?9?$AAH?$AAU@ 0042bcdc     libucrt:lcidtoname_downlevel.obj
 0002:00003ce8       ??_C@_1M@LPDDNNPN@?$AAi?$AAs?$AA?9?$AAI?$AAS@ 0042bce8     libucrt:lcidtoname_downlevel.obj
 0002:00003cf4       ??_C@_1M@MADIPODN@?$AAi?$AAt?$AA?9?$AAI?$AAT@ 0042bcf4     libucrt:lcidtoname_downlevel.obj
 0002:00003d00       ??_C@_1M@IHBJJGG@?$AAn?$AAl?$AA?9?$AAN?$AAL@ 0042bd00     libucrt:lcidtoname_downlevel.obj
 0002:00003d0c       ??_C@_1M@EANAGDL@?$AAn?$AAb?$AA?9?$AAN?$AAO@ 0042bd0c     libucrt:lcidtoname_downlevel.obj
 0002:00003d18       ??_C@_1M@NEIEMEGP@?$AAp?$AAl?$AA?9?$AAP?$AAL@ 0042bd18     libucrt:lcidtoname_downlevel.obj
 0002:00003d24       ??_C@_1M@BOCFIGEP@?$AAp?$AAt?$AA?9?$AAB?$AAR@ 0042bd24     libucrt:lcidtoname_downlevel.obj
 0002:00003d30       ??_C@_1M@IMPFOPBG@?$AAr?$AAo?$AA?9?$AAR?$AAO@ 0042bd30     libucrt:lcidtoname_downlevel.obj
 0002:00003d3c       ??_C@_1M@IDNNEJMM@?$AAr?$AAu?$AA?9?$AAR?$AAU@ 0042bd3c     libucrt:lcidtoname_downlevel.obj
 0002:00003d48       ??_C@_1M@LILEEOGM@?$AAh?$AAr?$AA?9?$AAH?$AAR@ 0042bd48     libucrt:lcidtoname_downlevel.obj
 0002:00003d54       ??_C@_1M@FKIFEHPB@?$AAs?$AAk?$AA?9?$AAS?$AAK@ 0042bd54     libucrt:lcidtoname_downlevel.obj
 0002:00003d60       ??_C@_1M@LJMAMNPJ@?$AAs?$AAq?$AA?9?$AAA?$AAL@ 0042bd60     libucrt:lcidtoname_downlevel.obj
 0002:00003d6c       ??_C@_1M@GIAKDKJK@?$AAs?$AAv?$AA?9?$AAS?$AAE@ 0042bd6c     libucrt:lcidtoname_downlevel.obj
 0002:00003d78       ??_C@_1M@MKJKIKCL@?$AAt?$AAh?$AA?9?$AAT?$AAH@ 0042bd78     libucrt:lcidtoname_downlevel.obj
 0002:00003d84       ??_C@_1M@MFLCCMPB@?$AAt?$AAr?$AA?9?$AAT?$AAR@ 0042bd84     libucrt:lcidtoname_downlevel.obj
 0002:00003d90       ??_C@_1M@OIJHDKJN@?$AAu?$AAr?$AA?9?$AAP?$AAK@ 0042bd90     libucrt:lcidtoname_downlevel.obj
 0002:00003d9c       ??_C@_1M@LHIPCIEK@?$AAi?$AAd?$AA?9?$AAI?$AAD@ 0042bd9c     libucrt:lcidtoname_downlevel.obj
 0002:00003da8       ??_C@_1M@MFMOBGI@?$AAu?$AAk?$AA?9?$AAU?$AAA@ 0042bda8     libucrt:lcidtoname_downlevel.obj
 0002:00003db4       ??_C@_1M@OBGLJIPL@?$AAb?$AAe?$AA?9?$AAB?$AAY@ 0042bdb4     libucrt:lcidtoname_downlevel.obj
 0002:00003dc0       ??_C@_1M@BCFAJEAD@?$AAs?$AAl?$AA?9?$AAS?$AAI@ 0042bdc0     libucrt:lcidtoname_downlevel.obj
 0002:00003dcc       ??_C@_1M@FKFFEDDN@?$AAe?$AAt?$AA?9?$AAE?$AAE@ 0042bdcc     libucrt:lcidtoname_downlevel.obj
 0002:00003dd8       ??_C@_1M@KGKKAACI@?$AAl?$AAv?$AA?9?$AAL?$AAV@ 0042bdd8     libucrt:lcidtoname_downlevel.obj
 0002:00003de4       ??_C@_1M@IFGBIJO@?$AAl?$AAt?$AA?9?$AAL?$AAT@ 0042bde4     libucrt:lcidtoname_downlevel.obj
 0002:00003df0       ??_C@_1M@FGEAHEDM@?$AAf?$AAa?$AA?9?$AAI?$AAR@ 0042bdf0     libucrt:lcidtoname_downlevel.obj
 0002:00003dfc       ??_C@_1M@KBMAIBFN@?$AAv?$AAi?$AA?9?$AAV?$AAN@ 0042bdfc     libucrt:lcidtoname_downlevel.obj
 0002:00003e08       ??_C@_1M@GPCBKDJK@?$AAh?$AAy?$AA?9?$AAA?$AAM@ 0042be08     libucrt:lcidtoname_downlevel.obj
 0002:00003e14       ??_C@_1BG@BECMDDJB@?$AAa?$AAz?$AA?9?$AAA?$AAZ?$AA?9?$AAL?$AAa?$AAt?$AAn@ 0042be14     libucrt:lcidtoname_downlevel.obj
 0002:00003e2c       ??_C@_1M@MAOFCAEA@?$AAe?$AAu?$AA?9?$AAE?$AAS@ 0042be2c     libucrt:lcidtoname_downlevel.obj
 0002:00003e38       ??_C@_1M@IGHABKPI@?$AAm?$AAk?$AA?9?$AAM?$AAK@ 0042be38     libucrt:lcidtoname_downlevel.obj
 0002:00003e44       ??_C@_1M@IAIGNEJG@?$AAt?$AAn?$AA?9?$AAZ?$AAA@ 0042be44     libucrt:lcidtoname_downlevel.obj
 0002:00003e50       ??_C@_1M@IIJCOJFA@?$AAx?$AAh?$AA?9?$AAZ?$AAA@ 0042be50     libucrt:lcidtoname_downlevel.obj
 0002:00003e5c       ??_C@_1M@LGPJHNJH@?$AAz?$AAu?$AA?9?$AAZ?$AAA@ 0042be5c     libucrt:lcidtoname_downlevel.obj
 0002:00003e68       ??_C@_1M@HOKAOIO@?$AAa?$AAf?$AA?9?$AAZ?$AAA@ 0042be68     libucrt:lcidtoname_downlevel.obj
 0002:00003e74       ??_C@_1M@DPCLHLIE@?$AAk?$AAa?$AA?9?$AAG?$AAE@ 0042be74     libucrt:lcidtoname_downlevel.obj
 0002:00003e80       ??_C@_1M@BLKMHJBI@?$AAf?$AAo?$AA?9?$AAF?$AAO@ 0042be80     libucrt:lcidtoname_downlevel.obj
 0002:00003e8c       ??_C@_1M@LGGJAPPB@?$AAh?$AAi?$AA?9?$AAI?$AAN@ 0042be8c     libucrt:lcidtoname_downlevel.obj
 0002:00003e98       ??_C@_1M@FIKPIHFE@?$AAm?$AAt?$AA?9?$AAM?$AAT@ 0042be98     libucrt:lcidtoname_downlevel.obj
 0002:00003ea4       ??_C@_1M@HEGGPBFA@?$AAs?$AAe?$AA?9?$AAN?$AAO@ 0042bea4     libucrt:lcidtoname_downlevel.obj
 0002:00003eb0       ??_C@_1M@EIBJEEPA@?$AAm?$AAs?$AA?9?$AAM?$AAY@ 0042beb0     libucrt:lcidtoname_downlevel.obj
 0002:00003ebc       ??_C@_1M@FHLBGMPP@?$AAk?$AAk?$AA?9?$AAK?$AAZ@ 0042bebc     libucrt:lcidtoname_downlevel.obj
 0002:00003ec8       ??_C@_1M@NGJJLCGI@?$AAk?$AAy?$AA?9?$AAK?$AAG@ 0042bec8     libucrt:lcidtoname_downlevel.obj
 0002:00003ed4       ??_C@_1M@GIENNBFC@?$AAs?$AAw?$AA?9?$AAK?$AAE@ 0042bed4     libucrt:lcidtoname_downlevel.obj
 0002:00003ee0       ??_C@_1BG@NDGMJIMJ@?$AAu?$AAz?$AA?9?$AAU?$AAZ?$AA?9?$AAL?$AAa?$AAt?$AAn@ 0042bee0     libucrt:lcidtoname_downlevel.obj
 0002:00003ef8       ??_C@_1M@IDCCIHBC@?$AAt?$AAt?$AA?9?$AAR?$AAU@ 0042bef8     libucrt:lcidtoname_downlevel.obj
 0002:00003f04       ??_C@_1M@LOICPMOJ@?$AAb?$AAn?$AA?9?$AAI?$AAN@ 0042bf04     libucrt:lcidtoname_downlevel.obj
 0002:00003f10       ??_C@_1M@KPKKNEAH@?$AAp?$AAa?$AA?9?$AAI?$AAN@ 0042bf10     libucrt:lcidtoname_downlevel.obj
 0002:00003f1c       ??_C@_1M@PJGPPBOG@?$AAg?$AAu?$AA?9?$AAI?$AAN@ 0042bf1c     libucrt:lcidtoname_downlevel.obj
 0002:00003f28       ??_C@_1M@KMKMOPHI@?$AAt?$AAa?$AA?9?$AAI?$AAN@ 0042bf28     libucrt:lcidtoname_downlevel.obj
 0002:00003f34       ??_C@_1M@KFEHEPAC@?$AAt?$AAe?$AA?9?$AAI?$AAN@ 0042bf34     libucrt:lcidtoname_downlevel.obj
 0002:00003f40       ??_C@_1M@CDCLMGHI@?$AAk?$AAn?$AA?9?$AAI?$AAN@ 0042bf40     libucrt:lcidtoname_downlevel.obj
 0002:00003f4c       ??_C@_1M@MIODLDKF@?$AAm?$AAl?$AA?9?$AAI?$AAN@ 0042bf4c     libucrt:lcidtoname_downlevel.obj
 0002:00003f58       ??_C@_1M@PBIEACPO@?$AAm?$AAr?$AA?9?$AAI?$AAN@ 0042bf58     libucrt:lcidtoname_downlevel.obj
 0002:00003f64       ??_C@_1M@NIDEAGPH@?$AAs?$AAa?$AA?9?$AAI?$AAN@ 0042bf64     libucrt:lcidtoname_downlevel.obj
 0002:00003f70       ??_C@_1M@FHIHCBIO@?$AAm?$AAn?$AA?9?$AAM?$AAN@ 0042bf70     libucrt:lcidtoname_downlevel.obj
 0002:00003f7c       ??_C@_1M@JAIJPENP@?$AAc?$AAy?$AA?9?$AAG?$AAB@ 0042bf7c     libucrt:lcidtoname_downlevel.obj
 0002:00003f88       ??_C@_1M@PHGFBEPN@?$AAg?$AAl?$AA?9?$AAE?$AAS@ 0042bf88     libucrt:lcidtoname_downlevel.obj
 0002:00003f94       ??_C@_1O@KPIPDNCP@?$AAk?$AAo?$AAk?$AA?9?$AAI?$AAN@ 0042bf94     libucrt:lcidtoname_downlevel.obj
 0002:00003fa4       ??_C@_1O@KNHJLDJA@?$AAs?$AAy?$AAr?$AA?9?$AAS?$AAY@ 0042bfa4     libucrt:lcidtoname_downlevel.obj
 0002:00003fb4       ??_C@_1O@MKEKBLAH@?$AAd?$AAi?$AAv?$AA?9?$AAM?$AAV@ 0042bfb4     libucrt:lcidtoname_downlevel.obj
 0002:00003fc4       ??_C@_1O@OHDCKDDF@?$AAq?$AAu?$AAz?$AA?9?$AAB?$AAO@ 0042bfc4     libucrt:lcidtoname_downlevel.obj
 0002:00003fd4       ??_C@_1M@LEPJNLFD@?$AAn?$AAs?$AA?9?$AAZ?$AAA@ 0042bfd4     libucrt:lcidtoname_downlevel.obj
 0002:00003fe0       ??_C@_1M@OMLEIIJB@?$AAm?$AAi?$AA?9?$AAN?$AAZ@ 0042bfe0     libucrt:lcidtoname_downlevel.obj
 0002:00003fec       ??_C@_1M@PMPEAILG@?$AAa?$AAr?$AA?9?$AAI?$AAQ@ 0042bfec     libucrt:lcidtoname_downlevel.obj
 0002:00003ff8       ??_C@_1M@CNKPNOEE@?$AAd?$AAe?$AA?9?$AAC?$AAH@ 0042bff8     libucrt:lcidtoname_downlevel.obj
 0002:00004004       ??_C@_1M@LKMGMLKO@?$AAe?$AAn?$AA?9?$AAG?$AAB@ 0042c004     libucrt:lcidtoname_downlevel.obj
 0002:00004010       ??_C@_1M@PGKJFFGL@?$AAe?$AAs?$AA?9?$AAM?$AAX@ 0042c010     libucrt:lcidtoname_downlevel.obj
 0002:0000401c       ??_C@_1M@DNNANBDC@?$AAf?$AAr?$AA?9?$AAB?$AAE@ 0042c01c     libucrt:lcidtoname_downlevel.obj
 0002:00004028       ??_C@_1M@HLGMDFHM@?$AAi?$AAt?$AA?9?$AAC?$AAH@ 0042c028     libucrt:lcidtoname_downlevel.obj
 0002:00004034       ??_C@_1M@CLLBGJH@?$AAn?$AAl?$AA?9?$AAB?$AAE@ 0042c034     libucrt:lcidtoname_downlevel.obj
 0002:00004040       ??_C@_1M@BODBOGLF@?$AAn?$AAn?$AA?9?$AAN?$AAO@ 0042c040     libucrt:lcidtoname_downlevel.obj
 0002:0000404c       ??_C@_1M@HFFAHKAD@?$AAp?$AAt?$AA?9?$AAP?$AAT@ 0042c04c     libucrt:lcidtoname_downlevel.obj
 0002:00004058       ??_C@_1BG@LNOAKHIE@?$AAs?$AAr?$AA?9?$AAS?$AAP?$AA?9?$AAL?$AAa?$AAt?$AAn@ 0042c058     libucrt:lcidtoname_downlevel.obj
 0002:00004070       ??_C@_1M@HBMHBGAK@?$AAs?$AAv?$AA?9?$AAF?$AAI@ 0042c070     libucrt:lcidtoname_downlevel.obj
 0002:0000407c       ??_C@_1BG@DGCJGJBE@?$AAa?$AAz?$AA?9?$AAA?$AAZ?$AA?9?$AAC?$AAy?$AAr?$AAl@ 0042c07c     libucrt:lcidtoname_downlevel.obj
 0002:00004094       ??_C@_1M@KEJDAAHB@?$AAs?$AAe?$AA?9?$AAS?$AAE@ 0042c094     libucrt:lcidtoname_downlevel.obj
 0002:000040a0       ??_C@_1M@HEIBJJAD@?$AAm?$AAs?$AA?9?$AAB?$AAN@ 0042c0a0     libucrt:lcidtoname_downlevel.obj
 0002:000040ac       ??_C@_1BG@PBGJMCEM@?$AAu?$AAz?$AA?9?$AAU?$AAZ?$AA?9?$AAC?$AAy?$AAr?$AAl@ 0042c0ac     libucrt:lcidtoname_downlevel.obj
 0002:000040c4       ??_C@_1O@LAOBCMDF@?$AAq?$AAu?$AAz?$AA?9?$AAE?$AAC@ 0042c0c4     libucrt:lcidtoname_downlevel.obj
 0002:000040d4       ??_C@_1M@POEEMAIO@?$AAa?$AAr?$AA?9?$AAE?$AAG@ 0042c0d4     libucrt:lcidtoname_downlevel.obj
 0002:000040e0       ??_C@_1M@EFAKDEDL@?$AAz?$AAh?$AA?9?$AAH?$AAK@ 0042c0e0     libucrt:lcidtoname_downlevel.obj
 0002:000040ec       ??_C@_1M@HKKIJHGI@?$AAd?$AAe?$AA?9?$AAA?$AAT@ 0042c0ec     libucrt:lcidtoname_downlevel.obj
 0002:000040f8       ??_C@_1M@KBFBEHJF@?$AAe?$AAn?$AA?9?$AAA?$AAU@ 0042c0f8     libucrt:lcidtoname_downlevel.obj
 0002:00004104       ??_C@_1M@MNPLFAAH@?$AAe?$AAs?$AA?9?$AAE?$AAS@ 0042c104     libucrt:lcidtoname_downlevel.obj
 0002:00004110       ??_C@_1M@HJOOJFMA@?$AAf?$AAr?$AA?9?$AAC?$AAA@ 0042c110     libucrt:lcidtoname_downlevel.obj
 0002:0000411c       ??_C@_1BG@JPOFPNAB@?$AAs?$AAr?$AA?9?$AAS?$AAP?$AA?9?$AAC?$AAy?$AAr?$AAl@ 0042c11c     libucrt:lcidtoname_downlevel.obj
 0002:00004134       ??_C@_1M@LNFOCMOB@?$AAs?$AAe?$AA?9?$AAF?$AAI@ 0042c134     libucrt:lcidtoname_downlevel.obj
 0002:00004140       ??_C@_1O@MGJBOAMB@?$AAq?$AAu?$AAz?$AA?9?$AAP?$AAE@ 0042c140     libucrt:lcidtoname_downlevel.obj
 0002:00004150       ??_C@_1M@GJINLBOK@?$AAa?$AAr?$AA?9?$AAL?$AAY@ 0042c150     libucrt:lcidtoname_downlevel.obj
 0002:0000415c       ??_C@_1M@GGMNHJNL@?$AAz?$AAh?$AA?9?$AAS?$AAG@ 0042c15c     libucrt:lcidtoname_downlevel.obj
 0002:00004168       ??_C@_1M@HOIKODND@?$AAd?$AAe?$AA?9?$AAL?$AAU@ 0042c168     libucrt:lcidtoname_downlevel.obj
 0002:00004174       ??_C@_1M@DDOCCGFG@?$AAe?$AAn?$AA?9?$AAC?$AAA@ 0042c174     libucrt:lcidtoname_downlevel.obj
 0002:00004180       ??_C@_1M@BNOEMJLF@?$AAe?$AAs?$AA?9?$AAG?$AAT@ 0042c180     libucrt:lcidtoname_downlevel.obj
 0002:0000418c       ??_C@_1M@EOGNKEK@?$AAf?$AAr?$AA?9?$AAC?$AAH@ 0042c18c     libucrt:lcidtoname_downlevel.obj
 0002:00004198       ??_C@_1M@FLIDJFHL@?$AAh?$AAr?$AA?9?$AAB?$AAA@ 0042c198     libucrt:lcidtoname_downlevel.obj
 0002:000041a4       ??_C@_1O@FMCELNAJ@?$AAs?$AAm?$AAj?$AA?9?$AAN?$AAO@ 0042c1a4     libucrt:lcidtoname_downlevel.obj
 0002:000041b4       ??_C@_1M@JHGLJMGJ@?$AAa?$AAr?$AA?9?$AAD?$AAZ@ 0042c1b4     libucrt:lcidtoname_downlevel.obj
 0002:000041c0       ??_C@_1M@JKKFDCNP@?$AAz?$AAh?$AA?9?$AAM?$AAO@ 0042c1c0     libucrt:lcidtoname_downlevel.obj
 0002:000041cc       ??_C@_1M@GEEFALPE@?$AAd?$AAe?$AA?9?$AAL?$AAI@ 0042c1cc     libucrt:lcidtoname_downlevel.obj
 0002:000041d8       ??_C@_1M@IGEOFBG@?$AAe?$AAn?$AA?9?$AAN?$AAZ@ 0042c1d8     libucrt:lcidtoname_downlevel.obj
 0002:000041e4       ??_C@_1M@KDBONEHP@?$AAe?$AAs?$AA?9?$AAC?$AAR@ 0042c1e4     libucrt:lcidtoname_downlevel.obj
 0002:000041f0       ??_C@_1M@FHMDOHNN@?$AAf?$AAr?$AA?9?$AAL?$AAU@ 0042c1f0     libucrt:lcidtoname_downlevel.obj
 0002:000041fc       ??_C@_1BG@NFKKMAFG@?$AAb?$AAs?$AA?9?$AAB?$AAA?$AA?9?$AAL?$AAa?$AAt?$AAn@ 0042c1fc     libucrt:lcidtoname_downlevel.obj
 0002:00004214       ??_C@_1O@IMNBEMCI@?$AAs?$AAm?$AAj?$AA?9?$AAS?$AAE@ 0042c214     libucrt:lcidtoname_downlevel.obj
 0002:00004224       ??_C@_1M@DHHMBNDP@?$AAa?$AAr?$AA?9?$AAM?$AAA@ 0042c224     libucrt:lcidtoname_downlevel.obj
 0002:00004230       ??_C@_1M@BNBLJCGH@?$AAe?$AAn?$AA?9?$AAI?$AAE@ 0042c230     libucrt:lcidtoname_downlevel.obj
 0002:0000423c       ??_C@_1M@GEPAFMDL@?$AAe?$AAs?$AA?9?$AAP?$AAA@ 0042c23c     libucrt:lcidtoname_downlevel.obj
 0002:00004248       ??_C@_1M@OJONDMDL@?$AAf?$AAr?$AA?9?$AAM?$AAC@ 0042c248     libucrt:lcidtoname_downlevel.obj
 0002:00004254       ??_C@_1BG@OBCNFJB@?$AAs?$AAr?$AA?9?$AAB?$AAA?$AA?9?$AAL?$AAa?$AAt?$AAn@ 0042c254     libucrt:lcidtoname_downlevel.obj
 0002:0000426c       ??_C@_1O@KEMEEGPO@?$AAs?$AAm?$AAa?$AA?9?$AAN?$AAO@ 0042c26c     libucrt:lcidtoname_downlevel.obj
 0002:0000427c       ??_C@_1M@ELMGFODK@?$AAa?$AAr?$AA?9?$AAT?$AAN@ 0042c27c     libucrt:lcidtoname_downlevel.obj
 0002:00004288       ??_C@_1M@BHDLHFAF@?$AAe?$AAn?$AA?9?$AAZ?$AAA@ 0042c288     libucrt:lcidtoname_downlevel.obj
 0002:00004294       ??_C@_1M@BMGIGLIF@?$AAe?$AAs?$AA?9?$AAD?$AAO@ 0042c294     libucrt:lcidtoname_downlevel.obj
 0002:000042a0       ??_C@_1BG@CMBHIPBE@?$AAs?$AAr?$AA?9?$AAB?$AAA?$AA?9?$AAC?$AAy?$AAr?$AAl@ 0042c2a0     libucrt:lcidtoname_downlevel.obj
 0002:000042b8       ??_C@_1O@HEDBLHNP@?$AAs?$AAm?$AAa?$AA?9?$AAS?$AAE@ 0042c2b8     libucrt:lcidtoname_downlevel.obj
 0002:000042c8       ??_C@_1M@DAGCADIM@?$AAa?$AAr?$AA?9?$AAO?$AAM@ 0042c2c8     libucrt:lcidtoname_downlevel.obj
 0002:000042d4       ??_C@_1M@FODLMICG@?$AAe?$AAn?$AA?9?$AAJ?$AAM@ 0042c2d4     libucrt:lcidtoname_downlevel.obj
 0002:000042e0       ??_C@_1M@DNMLCIHB@?$AAe?$AAs?$AA?9?$AAV?$AAE@ 0042c2e0     libucrt:lcidtoname_downlevel.obj
 0002:000042ec       ??_C@_1O@EOKHMKJK@?$AAs?$AAm?$AAs?$AA?9?$AAF?$AAI@ 0042c2ec     libucrt:lcidtoname_downlevel.obj
 0002:000042fc       ??_C@_1M@CAFJMKOF@?$AAa?$AAr?$AA?9?$AAY?$AAE@ 0042c2fc     libucrt:lcidtoname_downlevel.obj
 0002:00004308       ??_C@_1M@CBFHIJLI@?$AAe?$AAn?$AA?9?$AAC?$AAB@ 0042c308     libucrt:lcidtoname_downlevel.obj
 0002:00004314       ??_C@_1M@BGNFLDN@?$AAe?$AAs?$AA?9?$AAC?$AAO@ 0042c314     libucrt:lcidtoname_downlevel.obj
 0002:00004320       ??_C@_1O@JMPHMAMC@?$AAs?$AAm?$AAn?$AA?9?$AAF?$AAI@ 0042c320     libucrt:lcidtoname_downlevel.obj
 0002:00004330       ??_C@_1M@JLANABKE@?$AAa?$AAr?$AA?9?$AAS?$AAY@ 0042c330     libucrt:lcidtoname_downlevel.obj
 0002:0000433c       ??_C@_1M@HPKGCFGN@?$AAe?$AAn?$AA?9?$AAB?$AAZ@ 0042c33c     libucrt:lcidtoname_downlevel.obj
 0002:00004348       ??_C@_1M@OLJCMLGM@?$AAe?$AAs?$AA?9?$AAP?$AAE@ 0042c348     libucrt:lcidtoname_downlevel.obj
 0002:00004354       ??_C@_1M@MKKGFKLE@?$AAa?$AAr?$AA?9?$AAJ?$AAO@ 0042c354     libucrt:lcidtoname_downlevel.obj
 0002:00004360       ??_C@_1M@EKPGLDNI@?$AAe?$AAn?$AA?9?$AAT?$AAT@ 0042c360     libucrt:lcidtoname_downlevel.obj
 0002:0000436c       ??_C@_1M@OONGHFHE@?$AAe?$AAs?$AA?9?$AAA?$AAR@ 0042c36c     libucrt:lcidtoname_downlevel.obj
 0002:00004378       ??_C@_1M@OOJFGBHE@?$AAa?$AAr?$AA?9?$AAL?$AAB@ 0042c378     libucrt:lcidtoname_downlevel.obj
 0002:00004384       ??_C@_1M@GCEJHNEG@?$AAe?$AAn?$AA?9?$AAZ?$AAW@ 0042c384     libucrt:lcidtoname_downlevel.obj
 0002:00004390       ??_C@_1M@JNOCAHJI@?$AAe?$AAs?$AA?9?$AAE?$AAC@ 0042c390     libucrt:lcidtoname_downlevel.obj
 0002:0000439c       ??_C@_1M@JEFHPGGB@?$AAa?$AAr?$AA?9?$AAK?$AAW@ 0042c39c     libucrt:lcidtoname_downlevel.obj
 0002:000043a8       ??_C@_1M@MLKIBJOJ@?$AAe?$AAn?$AA?9?$AAP?$AAH@ 0042c3a8     libucrt:lcidtoname_downlevel.obj
 0002:000043b4       ??_C@_1M@BDNIPEND@?$AAe?$AAs?$AA?9?$AAC?$AAL@ 0042c3b4     libucrt:lcidtoname_downlevel.obj
 0002:000043c0       ??_C@_1M@MPNMEKBD@?$AAa?$AAr?$AA?9?$AAA?$AAE@ 0042c3c0     libucrt:lcidtoname_downlevel.obj
 0002:000043cc       ??_C@_1M@KBJALCPI@?$AAe?$AAs?$AA?9?$AAU?$AAY@ 0042c3cc     libucrt:lcidtoname_downlevel.obj
 0002:000043d8       ??_C@_1M@LLCCOAGA@?$AAa?$AAr?$AA?9?$AAB?$AAH@ 0042c3d8     libucrt:lcidtoname_downlevel.obj
 0002:000043e4       ??_C@_1M@PBFNCDEL@?$AAe?$AAs?$AA?9?$AAP?$AAY@ 0042c3e4     libucrt:lcidtoname_downlevel.obj
 0002:000043f0       ??_C@_1M@EDGINPNP@?$AAa?$AAr?$AA?9?$AAQ?$AAA@ 0042c3f0     libucrt:lcidtoname_downlevel.obj
 0002:000043fc       ??_C@_1M@MKDBIIJI@?$AAe?$AAs?$AA?9?$AAB?$AAO@ 0042c3fc     libucrt:lcidtoname_downlevel.obj
 0002:00004408       ??_C@_1M@CPKKEBLD@?$AAe?$AAs?$AA?9?$AAS?$AAV@ 0042c408     libucrt:lcidtoname_downlevel.obj
 0002:00004414       ??_C@_1M@NDBGMMJL@?$AAe?$AAs?$AA?9?$AAH?$AAN@ 0042c414     libucrt:lcidtoname_downlevel.obj
 0002:00004420       ??_C@_1M@JIJIBHDP@?$AAe?$AAs?$AA?9?$AAN?$AAI@ 0042c420     libucrt:lcidtoname_downlevel.obj
 0002:0000442c       ??_C@_1M@CGFMKEEK@?$AAe?$AAs?$AA?9?$AAP?$AAR@ 0042c42c     libucrt:lcidtoname_downlevel.obj
 0002:00004438       ??_C@_1O@ICJHKIIK@?$AAz?$AAh?$AA?9?$AAC?$AAH?$AAT@ 0042c438     libucrt:lcidtoname_downlevel.obj
 0002:00004448       ??_C@_15CLNEJCE@?$AAs?$AAr@ 0042c448     libucrt:lcidtoname_downlevel.obj
 0002:00004b70       ??_C@_1M@KAHEKEIG@?$AAa?$AAf?$AA?9?$AAz?$AAa@ 0042cb70     libucrt:lcidtoname_downlevel.obj
 0002:00004b7c       ??_C@_1M@GIECOABL@?$AAa?$AAr?$AA?9?$AAa?$AAe@ 0042cb7c     libucrt:lcidtoname_downlevel.obj
 0002:00004b88       ??_C@_1M@BMLMEKGI@?$AAa?$AAr?$AA?9?$AAb?$AAh@ 0042cb88     libucrt:lcidtoname_downlevel.obj
 0002:00004b94       ??_C@_1M@DAPFDGGB@?$AAa?$AAr?$AA?9?$AAd?$AAz@ 0042cb94     libucrt:lcidtoname_downlevel.obj
 0002:00004ba0       ??_C@_1M@FJNKGKIG@?$AAa?$AAr?$AA?9?$AAe?$AAg@ 0042cba0     libucrt:lcidtoname_downlevel.obj
 0002:00004bac       ??_C@_1M@FLGKKCLO@?$AAa?$AAr?$AA?9?$AAi?$AAq@ 0042cbac     libucrt:lcidtoname_downlevel.obj
 0002:00004bb8       ??_C@_1M@GNDIPALM@?$AAa?$AAr?$AA?9?$AAj?$AAo@ 0042cbb8     libucrt:lcidtoname_downlevel.obj
 0002:00004bc4       ??_C@_1M@DDMJFMGJ@?$AAa?$AAr?$AA?9?$AAk?$AAw@ 0042cbc4     libucrt:lcidtoname_downlevel.obj
 0002:00004bd0       ??_C@_1M@EJALMLHM@?$AAa?$AAr?$AA?9?$AAl?$AAb@ 0042cbd0     libucrt:lcidtoname_downlevel.obj
 0002:00004bdc       ??_C@_1M@MOBDBLOC@?$AAa?$AAr?$AA?9?$AAl?$AAy@ 0042cbdc     libucrt:lcidtoname_downlevel.obj
 0002:00004be8       ??_C@_1M@JAOCLHDH@?$AAa?$AAr?$AA?9?$AAm?$AAa@ 0042cbe8     libucrt:lcidtoname_downlevel.obj
 0002:00004bf4       ??_C@_1M@JHPMKJIE@?$AAa?$AAr?$AA?9?$AAo?$AAm@ 0042cbf4     libucrt:lcidtoname_downlevel.obj
 0002:00004c00       ??_C@_1M@OEPGHFNH@?$AAa?$AAr?$AA?9?$AAq?$AAa@ 0042cc00     libucrt:lcidtoname_downlevel.obj
 0002:00004c0c       ??_C@_1M@KJDONENM@?$AAa?$AAr?$AA?9?$AAs?$AAa@ 0042cc0c     libucrt:lcidtoname_downlevel.obj
 0002:00004c18       ??_C@_1M@DMJDKLKM@?$AAa?$AAr?$AA?9?$AAs?$AAy@ 0042cc18     libucrt:lcidtoname_downlevel.obj
 0002:00004c24       ??_C@_1M@OMFIPEDC@?$AAa?$AAr?$AA?9?$AAt?$AAn@ 0042cc24     libucrt:lcidtoname_downlevel.obj
 0002:00004c30       ??_C@_1M@IHMHGAON@?$AAa?$AAr?$AA?9?$AAy?$AAe@ 0042cc30     libucrt:lcidtoname_downlevel.obj
 0002:00004c3c       ??_C@_1BG@KDCPGJGB@?$AAa?$AAz?$AA?9?$AAa?$AAz?$AA?9?$AAc?$AAy?$AAr?$AAl@ 0042cc3c     libucrt:lcidtoname_downlevel.obj
 0002:00004c54       ??_C@_1BG@IBCKDDOE@?$AAa?$AAz?$AA?9?$AAa?$AAz?$AA?9?$AAl?$AAa?$AAt?$AAn@ 0042cc54     libucrt:lcidtoname_downlevel.obj
 0002:00004c6c       ??_C@_1M@EGPFDCPD@?$AAb?$AAe?$AA?9?$AAb?$AAy@ 0042cc6c     libucrt:lcidtoname_downlevel.obj
 0002:00004c78       ??_C@_1M@PCMGMCGC@?$AAb?$AAg?$AA?9?$AAb?$AAg@ 0042cc78     libucrt:lcidtoname_downlevel.obj
 0002:00004c84       ??_C@_1M@BJBMFGOB@?$AAb?$AAn?$AA?9?$AAi?$AAn@ 0042cc84     libucrt:lcidtoname_downlevel.obj
 0002:00004c90       ??_C@_1BG@EAKMMACD@?$AAb?$AAs?$AA?9?$AAb?$AAa?$AA?9?$AAl?$AAa?$AAt?$AAn@ 0042cc90     libucrt:lcidtoname_downlevel.obj
 0002:00004ca8       ??_C@_1M@KGADAODK@?$AAc?$AAa?$AA?9?$AAe?$AAs@ 0042cca8     libucrt:lcidtoname_downlevel.obj
 0002:00004cb4       ??_C@_1M@COAJPDHI@?$AAc?$AAs?$AA?9?$AAc?$AAz@ 0042ccb4     libucrt:lcidtoname_downlevel.obj
 0002:00004cc0       ??_C@_1M@DHBHFONH@?$AAc?$AAy?$AA?9?$AAg?$AAb@ 0042ccc0     libucrt:lcidtoname_downlevel.obj
 0002:00004ccc       ??_C@_1M@IMGKELGA@?$AAd?$AAa?$AA?9?$AAd?$AAk@ 0042cccc     libucrt:lcidtoname_downlevel.obj
 0002:00004cd8       ??_C@_1M@NNDGDNGA@?$AAd?$AAe?$AA?9?$AAa?$AAt@ 0042ccd8     libucrt:lcidtoname_downlevel.obj
 0002:00004ce4       ??_C@_1M@IKDBHEEM@?$AAd?$AAe?$AA?9?$AAc?$AAh@ 0042cce4     libucrt:lcidtoname_downlevel.obj
 0002:00004cf0       ??_C@_1M@GFFOJMCJ@?$AAd?$AAe?$AA?9?$AAd?$AAe@ 0042ccf0     libucrt:lcidtoname_downlevel.obj
 0002:00004cfc       ??_C@_1M@MDNLKBPM@?$AAd?$AAe?$AA?9?$AAl?$AAi@ 0042ccfc     libucrt:lcidtoname_downlevel.obj
 0002:00004d08       ??_C@_1M@NJBEEJNL@?$AAd?$AAe?$AA?9?$AAl?$AAu@ 0042cd08     libucrt:lcidtoname_downlevel.obj
 0002:00004d14       ??_C@_1O@GNNELBAP@?$AAd?$AAi?$AAv?$AA?9?$AAm?$AAv@ 0042cd14     libucrt:lcidtoname_downlevel.obj
 0002:00004d24       ??_C@_1M@EJLEOGAE@?$AAe?$AAl?$AA?9?$AAg?$AAr@ 0042cd24     libucrt:lcidtoname_downlevel.obj
 0002:00004d30       ??_C@_1M@GMPONJN@?$AAe?$AAn?$AA?9?$AAa?$AAu@ 0042cd30     libucrt:lcidtoname_downlevel.obj
 0002:00004d3c       ??_C@_1M@NIDIIPGF@?$AAe?$AAn?$AA?9?$AAb?$AAz@ 0042cd3c     libucrt:lcidtoname_downlevel.obj
 0002:00004d48       ??_C@_1M@JEHMIMFO@?$AAe?$AAn?$AA?9?$AAc?$AAa@ 0042cd48     libucrt:lcidtoname_downlevel.obj
 0002:00004d54       ??_C@_1M@IGMJCDLA@?$AAe?$AAn?$AA?9?$AAc?$AAb@ 0042cd54     libucrt:lcidtoname_downlevel.obj
 0002:00004d60       ??_C@_1M@BNFIGBKG@?$AAe?$AAn?$AA?9?$AAg?$AAb@ 0042cd60     libucrt:lcidtoname_downlevel.obj
 0002:00004d6c       ??_C@_1M@LKIFDIGP@?$AAe?$AAn?$AA?9?$AAi?$AAe@ 0042cd6c     libucrt:lcidtoname_downlevel.obj
 0002:00004d78       ??_C@_1M@PJKFGCCO@?$AAe?$AAn?$AA?9?$AAj?$AAm@ 0042cd78     libucrt:lcidtoname_downlevel.obj
 0002:00004d84       ??_C@_1M@KPPKEPBO@?$AAe?$AAn?$AA?9?$AAn?$AAz@ 0042cd84     libucrt:lcidtoname_downlevel.obj
 0002:00004d90       ??_C@_1M@GMDGLDOB@?$AAe?$AAn?$AA?9?$AAp?$AAh@ 0042cd90     libucrt:lcidtoname_downlevel.obj
 0002:00004d9c       ??_C@_1M@ONGIBJNA@?$AAe?$AAn?$AA?9?$AAt?$AAt@ 0042cd9c     libucrt:lcidtoname_downlevel.obj
 0002:00004da8       ??_C@_1M@LLODPCMM@?$AAe?$AAn?$AA?9?$AAu?$AAs@ 0042cda8     libucrt:lcidtoname_downlevel.obj
 0002:00004db4       ??_C@_1M@LAKFNPAN@?$AAe?$AAn?$AA?9?$AAz?$AAa@ 0042cdb4     libucrt:lcidtoname_downlevel.obj
 0002:00004dc0       ??_C@_1M@MFNHNHEO@?$AAe?$AAn?$AA?9?$AAz?$AAw@ 0042cdc0     libucrt:lcidtoname_downlevel.obj
 0002:00004dcc       ??_C@_1M@EJEINPHM@?$AAe?$AAs?$AA?9?$AAa?$AAr@ 0042cdcc     libucrt:lcidtoname_downlevel.obj
 0002:00004dd8       ??_C@_1M@GNKPCCJA@?$AAe?$AAs?$AA?9?$AAb?$AAo@ 0042cdd8     libucrt:lcidtoname_downlevel.obj
 0002:00004de4       ??_C@_1M@LEEGFONL@?$AAe?$AAs?$AA?9?$AAc?$AAl@ 0042cde4     libucrt:lcidtoname_downlevel.obj
 0002:00004df0       ??_C@_1M@KGPDPBDF@?$AAe?$AAs?$AA?9?$AAc?$AAo@ 0042cdf0     libucrt:lcidtoname_downlevel.obj
 0002:00004dfc       ??_C@_1M@EIAHOHH@?$AAe?$AAs?$AA?9?$AAc?$AAr@ 0042cdfc     libucrt:lcidtoname_downlevel.obj
 0002:00004e08       ??_C@_1M@LLPGMBIN@?$AAe?$AAs?$AA?9?$AAd?$AAo@ 0042ce08     libucrt:lcidtoname_downlevel.obj
 0002:00004e14       ??_C@_1M@DKHMKNJA@?$AAe?$AAs?$AA?9?$AAe?$AAc@ 0042ce14     libucrt:lcidtoname_downlevel.obj
 0002:00004e20       ??_C@_1M@GKGFPKAP@?$AAe?$AAs?$AA?9?$AAe?$AAs@ 0042ce20     libucrt:lcidtoname_downlevel.obj
 0002:00004e2c       ??_C@_1M@LKHKGDLN@?$AAe?$AAs?$AA?9?$AAg?$AAt@ 0042ce2c     libucrt:lcidtoname_downlevel.obj
 0002:00004e38       ??_C@_1M@HEIIGGJD@?$AAe?$AAs?$AA?9?$AAh?$AAn@ 0042ce38     libucrt:lcidtoname_downlevel.obj
 0002:00004e44       ??_C@_1M@FBDHPPGD@?$AAe?$AAs?$AA?9?$AAm?$AAx@ 0042ce44     libucrt:lcidtoname_downlevel.obj
 0002:00004e50       ??_C@_1M@DPAGLNDH@?$AAe?$AAs?$AA?9?$AAn?$AAi@ 0042ce50     libucrt:lcidtoname_downlevel.obj
 0002:00004e5c       ??_C@_1M@MDGOPGDD@?$AAe?$AAs?$AA?9?$AAp?$AAa@ 0042ce5c     libucrt:lcidtoname_downlevel.obj
 0002:00004e68       ??_C@_1M@EMAMGBGE@?$AAe?$AAs?$AA?9?$AAp?$AAe@ 0042ce68     libucrt:lcidtoname_downlevel.obj
 0002:00004e74       ??_C@_1M@IBMCAOEC@?$AAe?$AAs?$AA?9?$AAp?$AAr@ 0042ce74     libucrt:lcidtoname_downlevel.obj
 0002:00004e80       ??_C@_1M@FGMDIJED@?$AAe?$AAs?$AA?9?$AAp?$AAy@ 0042ce80     libucrt:lcidtoname_downlevel.obj
 0002:00004e8c       ??_C@_1M@IIDEOLLL@?$AAe?$AAs?$AA?9?$AAs?$AAv@ 0042ce8c     libucrt:lcidtoname_downlevel.obj
 0002:00004e98       ??_C@_1M@GAOBIPA@?$AAe?$AAs?$AA?9?$AAu?$AAy@ 0042ce98     libucrt:lcidtoname_downlevel.obj
 0002:00004ea4       ??_C@_1M@JKFFICHJ@?$AAe?$AAs?$AA?9?$AAv?$AAe@ 0042cea4     libucrt:lcidtoname_downlevel.obj
 0002:00004eb0       ??_C@_1M@PNMLOJDF@?$AAe?$AAt?$AA?9?$AAe?$AAe@ 0042ceb0     libucrt:lcidtoname_downlevel.obj
 0002:00004ebc       ??_C@_1M@GHHLIKEI@?$AAe?$AAu?$AA?9?$AAe?$AAs@ 0042cebc     libucrt:lcidtoname_downlevel.obj
 0002:00004ec8       ??_C@_1M@PBNONODE@?$AAf?$AAa?$AA?9?$AAi?$AAr@ 0042cec8     libucrt:lcidtoname_downlevel.obj
 0002:00004ed4       ??_C@_1M@JEEHPMIL@?$AAf?$AAi?$AA?9?$AAf?$AAi@ 0042ced4     libucrt:lcidtoname_downlevel.obj
 0002:00004ee0       ??_C@_1M@LMDCNDBA@?$AAf?$AAo?$AA?9?$AAf?$AAo@ 0042cee0     libucrt:lcidtoname_downlevel.obj
 0002:00004eec       ??_C@_1M@JKEOHLDK@?$AAf?$AAr?$AA?9?$AAb?$AAe@ 0042ceec     libucrt:lcidtoname_downlevel.obj
 0002:00004ef8       ??_C@_1M@NOHADPMI@?$AAf?$AAr?$AA?9?$AAc?$AAa@ 0042cef8     libucrt:lcidtoname_downlevel.obj
 0002:00004f04       ??_C@_1M@KDHIHAEC@?$AAf?$AAr?$AA?9?$AAc?$AAh@ 0042cf04     libucrt:lcidtoname_downlevel.obj
 0002:00004f10       ??_C@_1M@MMBBFGAK@?$AAf?$AAr?$AA?9?$AAf?$AAr@ 0042cf10     libucrt:lcidtoname_downlevel.obj
 0002:00004f1c       ??_C@_1M@PAFNENNF@?$AAf?$AAr?$AA?9?$AAl?$AAu@ 0042cf1c     libucrt:lcidtoname_downlevel.obj
 0002:00004f28       ??_C@_1M@EOHDJGDD@?$AAf?$AAr?$AA?9?$AAm?$AAc@ 0042cf28     libucrt:lcidtoname_downlevel.obj
 0002:00004f34       ??_C@_1M@FAPLLOPF@?$AAg?$AAl?$AA?9?$AAe?$AAs@ 0042cf34     libucrt:lcidtoname_downlevel.obj
 0002:00004f40       ??_C@_1M@FOPBFLOO@?$AAg?$AAu?$AA?9?$AAi?$AAn@ 0042cf40     libucrt:lcidtoname_downlevel.obj
 0002:00004f4c       ??_C@_1M@KBMCINPM@?$AAh?$AAe?$AA?9?$AAi?$AAl@ 0042cf4c     libucrt:lcidtoname_downlevel.obj
 0002:00004f58       ??_C@_1M@BBPHKFPJ@?$AAh?$AAi?$AA?9?$AAi?$AAn@ 0042cf58     libucrt:lcidtoname_downlevel.obj
 0002:00004f64       ??_C@_1M@PMBNDPHD@?$AAh?$AAr?$AA?9?$AAb?$AAa@ 0042cf64     libucrt:lcidtoname_downlevel.obj
 0002:00004f70       ??_C@_1M@BPCKOEGE@?$AAh?$AAr?$AA?9?$AAh?$AAr@ 0042cf70     libucrt:lcidtoname_downlevel.obj
 0002:00004f7c       ??_C@_1M@GACBMHKE@?$AAh?$AAu?$AA?9?$AAh?$AAu@ 0042cf7c     libucrt:lcidtoname_downlevel.obj
 0002:00004f88       ??_C@_1M@MILPAJJC@?$AAh?$AAy?$AA?9?$AAa?$AAm@ 0042cf88     libucrt:lcidtoname_downlevel.obj
 0002:00004f94       ??_C@_1M@BABBICEC@?$AAi?$AAd?$AA?9?$AAi?$AAd@ 0042cf94     libucrt:lcidtoname_downlevel.obj
 0002:00004fa0       ??_C@_1M@BIKNHHPF@?$AAi?$AAs?$AA?9?$AAi?$AAs@ 0042cfa0     libucrt:lcidtoname_downlevel.obj
 0002:00004fac       ??_C@_1M@NMPCJPHE@?$AAi?$AAt?$AA?9?$AAc?$AAh@ 0042cfac     libucrt:lcidtoname_downlevel.obj
 0002:00004fb8       ??_C@_1M@GHKGFEDF@?$AAi?$AAt?$AA?9?$AAi?$AAt@ 0042cfb8     libucrt:lcidtoname_downlevel.obj
 0002:00004fc4       ??_C@_1M@NIEJCJJA@?$AAj?$AAa?$AA?9?$AAj?$AAp@ 0042cfc4     libucrt:lcidtoname_downlevel.obj
 0002:00004fd0       ??_C@_1M@JILFNBIM@?$AAk?$AAa?$AA?9?$AAg?$AAe@ 0042cfd0     libucrt:lcidtoname_downlevel.obj
 0002:00004fdc       ??_C@_1M@PACPMGPH@?$AAk?$AAk?$AA?9?$AAk?$AAz@ 0042cfdc     libucrt:lcidtoname_downlevel.obj
 0002:00004fe8       ??_C@_1M@IELFGMHA@?$AAk?$AAn?$AA?9?$AAi?$AAn@ 0042cfe8     libucrt:lcidtoname_downlevel.obj
 0002:00004ff4       ??_C@_1O@IBBJHCH@?$AAk?$AAo?$AAk?$AA?9?$AAi?$AAn@ 0042cff4     libucrt:lcidtoname_downlevel.obj
 0002:00005004       ??_C@_1M@DMHAEOGC@?$AAk?$AAo?$AA?9?$AAk?$AAr@ 0042d004     libucrt:lcidtoname_downlevel.obj
 0002:00005010       ??_C@_1M@HBAHBIGA@?$AAk?$AAy?$AA?9?$AAk?$AAg@ 0042d010     libucrt:lcidtoname_downlevel.obj
 0002:0000501c       ??_C@_1M@KPMILCJG@?$AAl?$AAt?$AA?9?$AAl?$AAt@ 0042d01c     libucrt:lcidtoname_downlevel.obj
 0002:00005028       ??_C@_1M@BDEKKCA@?$AAl?$AAv?$AA?9?$AAl?$AAv@ 0042d028     libucrt:lcidtoname_downlevel.obj
 0002:00005034       ??_C@_1M@ELCKCCJJ@?$AAm?$AAi?$AA?9?$AAn?$AAz@ 0042d034     libucrt:lcidtoname_downlevel.obj
 0002:00005040       ??_C@_1M@CBOOLAPA@?$AAm?$AAk?$AA?9?$AAm?$AAk@ 0042d040     libucrt:lcidtoname_downlevel.obj
 0002:0000504c       ??_C@_1M@GPHNBJKN@?$AAm?$AAl?$AA?9?$AAi?$AAn@ 0042d04c     libucrt:lcidtoname_downlevel.obj
 0002:00005058       ??_C@_1M@PABJILIG@?$AAm?$AAn?$AA?9?$AAm?$AAn@ 0042d058     libucrt:lcidtoname_downlevel.obj
 0002:00005064       ??_C@_1M@FGBKKIPG@?$AAm?$AAr?$AA?9?$AAi?$AAn@ 0042d064     libucrt:lcidtoname_downlevel.obj
 0002:00005070       ??_C@_1M@NDBPDDAL@?$AAm?$AAs?$AA?9?$AAb?$AAn@ 0042d070     libucrt:lcidtoname_downlevel.obj
 0002:0000507c       ??_C@_1M@OPIHOOPI@?$AAm?$AAs?$AA?9?$AAm?$AAy@ 0042d07c     libucrt:lcidtoname_downlevel.obj
 0002:00005088       ??_C@_1M@PPDBCNFM@?$AAm?$AAt?$AA?9?$AAm?$AAt@ 0042d088     libucrt:lcidtoname_downlevel.obj
 0002:00005094       ??_C@_1M@KDJDKMDD@?$AAn?$AAb?$AA?9?$AAn?$AAo@ 0042d094     libucrt:lcidtoname_downlevel.obj
 0002:000050a0       ??_C@_1M@KFCFLMJP@?$AAn?$AAl?$AA?9?$AAb?$AAe@ 0042d0a0     libucrt:lcidtoname_downlevel.obj
 0002:000050ac       ??_C@_1M@KPOPDDGO@?$AAn?$AAl?$AA?9?$AAn?$AAl@ 0042d0ac     libucrt:lcidtoname_downlevel.obj
 0002:000050b8       ??_C@_1M@LJKPEMLN@?$AAn?$AAn?$AA?9?$AAn?$AAo@ 0042d0b8     libucrt:lcidtoname_downlevel.obj
 0002:000050c4       ??_C@_1M@BDGHHBFL@?$AAn?$AAs?$AA?9?$AAz?$AAa@ 0042d0c4     libucrt:lcidtoname_downlevel.obj
 0002:000050d0       ??_C@_1M@IDEHOAP@?$AAp?$AAa?$AA?9?$AAi?$AAn@ 0042d0d0     libucrt:lcidtoname_downlevel.obj
 0002:000050dc       ??_C@_1M@HDBKGOGH@?$AAp?$AAl?$AA?9?$AAp?$AAl@ 0042d0dc     libucrt:lcidtoname_downlevel.obj
 0002:000050e8       ??_C@_1M@LJLLCMEH@?$AAp?$AAt?$AA?9?$AAb?$AAr@ 0042d0e8     libucrt:lcidtoname_downlevel.obj
 0002:000050f4       ??_C@_1M@NCMONAAL@?$AAp?$AAt?$AA?9?$AAp?$AAt@ 0042d0f4     libucrt:lcidtoname_downlevel.obj
 0002:00005100       ??_C@_1O@EAKMAJDN@?$AAq?$AAu?$AAz?$AA?9?$AAb?$AAo@ 0042d100     libucrt:lcidtoname_downlevel.obj
 0002:00005110       ??_C@_1O@BHHPIGDN@?$AAq?$AAu?$AAz?$AA?9?$AAe?$AAc@ 0042d110     libucrt:lcidtoname_downlevel.obj
 0002:00005120       ??_C@_1O@GBAPEKMJ@?$AAq?$AAu?$AAz?$AA?9?$AAp?$AAe@ 0042d120     libucrt:lcidtoname_downlevel.obj
 0002:00005130       ??_C@_1M@CLGLEFBO@?$AAr?$AAo?$AA?9?$AAr?$AAo@ 0042d130     libucrt:lcidtoname_downlevel.obj
 0002:0000513c       ??_C@_1M@CEEDODME@?$AAr?$AAu?$AA?9?$AAr?$AAu@ 0042d13c     libucrt:lcidtoname_downlevel.obj
 0002:00005148       ??_C@_1M@HPKKKMPP@?$AAs?$AAa?$AA?9?$AAi?$AAn@ 0042d148     libucrt:lcidtoname_downlevel.obj
 0002:00005154       ??_C@_1M@BKMAIGOJ@?$AAs?$AAe?$AA?9?$AAf?$AAi@ 0042d154     libucrt:lcidtoname_downlevel.obj
 0002:00005160       ??_C@_1M@NDPIFLFI@?$AAs?$AAe?$AA?9?$AAn?$AAo@ 0042d160     libucrt:lcidtoname_downlevel.obj
 0002:0000516c       ??_C@_1M@DANKKHJ@?$AAs?$AAe?$AA?9?$AAs?$AAe@ 0042d16c     libucrt:lcidtoname_downlevel.obj
 0002:00005178       ??_C@_1M@PNBLONPJ@?$AAs?$AAk?$AA?9?$AAs?$AAk@ 0042d178     libucrt:lcidtoname_downlevel.obj
 0002:00005184       ??_C@_1M@LFMODOAL@?$AAs?$AAl?$AA?9?$AAs?$AAi@ 0042d184     libucrt:lcidtoname_downlevel.obj
 0002:00005190       ??_C@_1O@DFKOMPG@?$AAs?$AAm?$AAa?$AA?9?$AAn?$AAo@ 0042d190     libucrt:lcidtoname_downlevel.obj
 0002:000051a0       ??_C@_1O@NDKPBNNH@?$AAs?$AAm?$AAa?$AA?9?$AAs?$AAe@ 0042d1a0     libucrt:lcidtoname_downlevel.obj
 0002:000051b0       ??_C@_1O@PLLKBHAB@?$AAs?$AAm?$AAj?$AA?9?$AAn?$AAo@ 0042d1b0     libucrt:lcidtoname_downlevel.obj
 0002:000051c0       ??_C@_1O@CLEPOGCA@?$AAs?$AAm?$AAj?$AA?9?$AAs?$AAe@ 0042d1c0     libucrt:lcidtoname_downlevel.obj
 0002:000051d0       ??_C@_1O@DLGJGKMK@?$AAs?$AAm?$AAn?$AA?9?$AAf?$AAi@ 0042d1d0     libucrt:lcidtoname_downlevel.obj
 0002:000051e0       ??_C@_1O@OJDJGAJC@?$AAs?$AAm?$AAs?$AA?9?$AAf?$AAi@ 0042d1e0     libucrt:lcidtoname_downlevel.obj
 0002:000051f0       ??_C@_1M@BOFOGHPB@?$AAs?$AAq?$AA?9?$AAa?$AAl@ 0042d1f0     libucrt:lcidtoname_downlevel.obj
 0002:000051fc       ??_C@_1BG@LJBBIPGB@?$AAs?$AAr?$AA?9?$AAb?$AAa?$AA?9?$AAc?$AAy?$AAr?$AAl@ 0042d1fc     libucrt:lcidtoname_downlevel.obj
 0002:00005214       ??_C@_1BG@JLBENFOE@?$AAs?$AAr?$AA?9?$AAb?$AAa?$AA?9?$AAl?$AAa?$AAt?$AAn@ 0042d214     libucrt:lcidtoname_downlevel.obj
 0002:0000522c       ??_C@_1BG@KODPNHE@?$AAs?$AAr?$AA?9?$AAs?$AAp?$AA?9?$AAc?$AAy?$AAr?$AAl@ 0042d22c     libucrt:lcidtoname_downlevel.obj
 0002:00005244       ??_C@_1BG@CIOGKHPB@?$AAs?$AAr?$AA?9?$AAs?$AAp?$AA?9?$AAl?$AAa?$AAt?$AAn@ 0042d244     libucrt:lcidtoname_downlevel.obj
 0002:0000525c       ??_C@_1M@NGFJLMAC@?$AAs?$AAv?$AA?9?$AAf?$AAi@ 0042d25c     libucrt:lcidtoname_downlevel.obj
 0002:00005268       ??_C@_1M@MPJEJAJC@?$AAs?$AAv?$AA?9?$AAs?$AAe@ 0042d268     libucrt:lcidtoname_downlevel.obj
 0002:00005274       ??_C@_1M@MPNDHLFK@?$AAs?$AAw?$AA?9?$AAk?$AAe@ 0042d274     libucrt:lcidtoname_downlevel.obj
 0002:00005280       ??_C@_1O@KOHBJJI@?$AAs?$AAy?$AAr?$AA?9?$AAs?$AAy@ 0042d280     libucrt:lcidtoname_downlevel.obj
 0002:00005290       ??_C@_1M@LDCEFHA@?$AAt?$AAa?$AA?9?$AAi?$AAn@ 0042d290     libucrt:lcidtoname_downlevel.obj
 0002:0000529c       ??_C@_1M@CNJOFAK@?$AAt?$AAe?$AA?9?$AAi?$AAn@ 0042d29c     libucrt:lcidtoname_downlevel.obj
 0002:000052a8       ??_C@_1M@GNAECACD@?$AAt?$AAh?$AA?9?$AAt?$AAh@ 0042d2a8     libucrt:lcidtoname_downlevel.obj
 0002:000052b4       ??_C@_1M@CHBIHOJO@?$AAt?$AAn?$AA?9?$AAz?$AAa@ 0042d2b4     libucrt:lcidtoname_downlevel.obj
 0002:000052c0       ??_C@_1M@GCCMIGPJ@?$AAt?$AAr?$AA?9?$AAt?$AAr@ 0042d2c0     libucrt:lcidtoname_downlevel.obj
 0002:000052cc       ??_C@_1M@CELMCNBK@?$AAt?$AAt?$AA?9?$AAr?$AAu@ 0042d2cc     libucrt:lcidtoname_downlevel.obj
 0002:000052d8       ??_C@_1M@KLMCELGA@?$AAu?$AAk?$AA?9?$AAu?$AAa@ 0042d2d8     libucrt:lcidtoname_downlevel.obj
 0002:000052e4       ??_C@_1M@EPAJJAJF@?$AAu?$AAr?$AA?9?$AAp?$AAk@ 0042d2e4     libucrt:lcidtoname_downlevel.obj
 0002:000052f0       ??_C@_1BG@GEGPMCDJ@?$AAu?$AAz?$AA?9?$AAu?$AAz?$AA?9?$AAc?$AAy?$AAr?$AAl@ 0042d2f0     libucrt:lcidtoname_downlevel.obj
 0002:00005308       ??_C@_1BG@EGGKJILM@?$AAu?$AAz?$AA?9?$AAu?$AAz?$AA?9?$AAl?$AAa?$AAt?$AAn@ 0042d308     libucrt:lcidtoname_downlevel.obj
 0002:00005320       ??_C@_1M@GFOCLFF@?$AAv?$AAi?$AA?9?$AAv?$AAn@ 0042d320     libucrt:lcidtoname_downlevel.obj
 0002:0000532c       ??_C@_1M@CPAMEDFI@?$AAx?$AAh?$AA?9?$AAz?$AAa@ 0042d32c     libucrt:lcidtoname_downlevel.obj
 0002:00005338       ??_C@_1O@EBKIFIGN@?$AAz?$AAh?$AA?9?$AAc?$AAh?$AAs@ 0042d338     libucrt:lcidtoname_downlevel.obj
 0002:00005348       ??_C@_1O@NMHPGANE@?$AAz?$AAh?$AA?9?$AAc?$AAh?$AAt@ 0042d348     libucrt:lcidtoname_downlevel.obj
 0002:00005358       ??_C@_1M@LPINJOMC@?$AAz?$AAh?$AA?9?$AAc?$AAn@ 0042d358     libucrt:lcidtoname_downlevel.obj
 0002:00005364       ??_C@_1M@OCJEJODD@?$AAz?$AAh?$AA?9?$AAh?$AAk@ 0042d364     libucrt:lcidtoname_downlevel.obj
 0002:00005370       ??_C@_1M@DNDLJINH@?$AAz?$AAh?$AA?9?$AAm?$AAo@ 0042d370     libucrt:lcidtoname_downlevel.obj
 0002:0000537c       ??_C@_1M@MBFDNDND@?$AAz?$AAh?$AA?9?$AAs?$AAg@ 0042d37c     libucrt:lcidtoname_downlevel.obj
 0002:00005388       ??_C@_1M@IMEPLEPE@?$AAz?$AAh?$AA?9?$AAt?$AAw@ 0042d388     libucrt:lcidtoname_downlevel.obj
 0002:00005394       ??_C@_1M@BBGHNHJP@?$AAz?$AAu?$AA?9?$AAz?$AAa@ 0042d394     libucrt:lcidtoname_downlevel.obj
 0002:00005418       ??_C@_1BA@BALFACEM@?$AAC?$AAO?$AAN?$AAO?$AAU?$AAT?$AA$@ 0042d418     libucrt:initcon.obj
 0002:00005530       __infinity                 0042d530     libucrt:87tran.obj
 0002:0000553a       __minfinity                0042d53a     libucrt:87tran.obj
 0002:00005544       __logemax                  0042d544     libucrt:87tran.obj
 0002:0000556a       __OP_EXPjmptab             0042d56a     libucrt:87tran.obj
 0002:00005590       __indefinite               0042d590     libucrt:87disp.obj
 0002:0000559a       __piby2                    0042d59a     libucrt:87disp.obj
 0002:000055a4       __piby4                    0042d5a4     libucrt:87disp.obj
 0002:000055d8       __DEFAULT_CW_in_mem        0042d5d8     libucrt:common.obj
 0002:000055da       __pi_by_2_to_61            0042d5da     libucrt:common.obj
 0002:00005614       ??_C@_03MGHMBJCF@log@      0042d614     libucrt:libm_error.obj
 0002:00005618       ??_C@_05HGHHAHAP@log10@    0042d618     libucrt:libm_error.obj
 0002:00005620       ??_C@_03KHJOGHMM@exp@      0042d620     libucrt:libm_error.obj
 0002:00005624       ??_C@_03JGHBODFD@pow@      0042d624     libucrt:libm_error.obj
 0002:00005628       ??_C@_04FIHNOPOL@asin@     0042d628     libucrt:libm_error.obj
 0002:00005630       ??_C@_04PDIFKINK@acos@     0042d630     libucrt:libm_error.obj
 0002:00005638       ??_C@_04EIAKFFMI@sqrt@     0042d638     libucrt:libm_error.obj
 0002:00005640       __real@3ff0000000000000    0042d640     libucrt:libm_error.obj
 0002:00005650       ___acrt_log10_table_t      0042d650     libucrt:log10_tables.obj
 0002:00005a60       ___acrt_log10_table_cb     0042da60     libucrt:log10_tables.obj
 0002:00005e70       __real@3fe0000000000000    0042de70     libucrt:powhlp.obj
 0002:00005f60       ??_C@_04COOMCNPB@sinh@     0042df60     libucrt:fpexcept.obj
 0002:00005f68       ??_C@_04HPJJNFIM@cosh@     0042df68     libucrt:fpexcept.obj
 0002:00005f70       ??_C@_04FJHINJAO@tanh@     0042df70     libucrt:fpexcept.obj
 0002:00005f78       ??_C@_04MLLJIGOK@atan@     0042df78     libucrt:fpexcept.obj
 0002:00005f80       ??_C@_05KNGEOGJB@atan2@    0042df80     libucrt:fpexcept.obj
 0002:00005f88       ??_C@_03BLEJJJBH@sin@      0042df88     libucrt:fpexcept.obj
 0002:00005f8c       ??_C@_03LALBNOCG@cos@      0042df8c     libucrt:fpexcept.obj
 0002:00005f90       ??_C@_03IIINPABG@tan@      0042df90     libucrt:fpexcept.obj
 0002:00005f94       ??_C@_04GFPJNGEK@ceil@     0042df94     libucrt:fpexcept.obj
 0002:00005f9c       ??_C@_05PBJFFIGL@floor@    0042df9c     libucrt:fpexcept.obj
 0002:00005fa4       ??_C@_04ODHECPBC@fabs@     0042dfa4     libucrt:fpexcept.obj
 0002:00005fac       ??_C@_04EHEDPDJG@modf@     0042dfac     libucrt:fpexcept.obj
 0002:00005fb4       ??_C@_05CEJMAHNP@ldexp@    0042dfb4     libucrt:fpexcept.obj
 0002:00005fbc       ??_C@_05KBKMEMPO@_cabs@    0042dfbc     libucrt:fpexcept.obj
 0002:00005fc4       ??_C@_06MEIMCGCF@_hypot@   0042dfc4     libucrt:fpexcept.obj
 0002:00005fcc       ??_C@_04KEPJIHGP@fmod@     0042dfcc     libucrt:fpexcept.obj
 0002:00005fd4       ??_C@_05GKKHEGJL@frexp@    0042dfd4     libucrt:fpexcept.obj
 0002:00005fdc       ??_C@_03MJLDFKDL@_y0@      0042dfdc     libucrt:fpexcept.obj
 0002:00005fe0       ??_C@_03NAKIGLHK@_y1@      0042dfe0     libucrt:fpexcept.obj
 0002:00005fe4       ??_C@_03ONILCKOB@_yn@      0042dfe4     libucrt:fpexcept.obj
 0002:00005fe8       ??_C@_05JGDBENOH@_logb@    0042dfe8     libucrt:fpexcept.obj
 0002:00005ff0       ??_C@_0L@KDOEJCKC@_nextafter@ 0042dff0     libucrt:fpexcept.obj
 0002:00006000       __d_inf                    0042e000     libucrt:util.obj
 0002:00006008       __d_max                    0042e008     libucrt:util.obj
 0002:00006010       __d_mzero                  0042e010     libucrt:util.obj
 0002:00006030       __xmm@00000000000000000000000000000000 0042e030     libvcruntime:wcschr.obj
 0002:00006044       ??_7CAuthenticate@@6B@     0042e044     Authenticate.obj
 0002:00006048       ??_C@_03JBJLGPFL@end@      0042e048     BlackList.obj
 0002:0000604c       ??_C@_0BD@MGPGFILE@?$CFs?5file?5read?5error@ 0042e04c     BlackList.obj
 0002:00006060       ??_C@_0BA@FOIKENOD@vector?5too?5long@ 0042e060     BlackList.obj
 0002:00006070       ??_C@_0BF@KINCDENJ@bad?5array?5new?5length@ 0042e070     BlackList.obj
 0002:00006088       ??_C@_0BC@EOODALEL@Unknown?5exception@ 0042e088     BlackList.obj
 0002:000060a8       ??_7CBlackList@@6B@        0042e0a8     BlackList.obj
 0002:000060ac       ??_C@_02JDPG@rb@           0042e0ac     CCRC32.obj
 0002:000060b0       ??_C@_0CD@HDMPEILL@?$FLClientManager?$FN?$FL?$CFd?$FN?5AddClient?5?$CI@ 0042e0b0     ClientManager.obj
 0002:000060d4       ??_C@_0CD@IHEEMECL@?$FLClientManager?$FN?$FL?$CFd?$FN?5DelClient?5?$CI@ 0042e0d4     ClientManager.obj
 0002:000060f8       ??_C@_0DA@DCNIIOGP@?$FLClientManager?$FN?$FL?$CFd?$FN?5ClientInfo?5@ 0042e0f8     ClientManager.obj
 0002:00006128       ??_C@_0BB@GCADKGJO@map?1set?5too?5long@ 0042e128     ClientManager.obj
 0002:0000613c       ??_C@_0BA@JFNIOLAK@string?5too?5long@ 0042e13c     ClientManager.obj
 0002:00006150       ??_7CClientManager@@6B@    0042e150     ClientManager.obj
 0002:00006158       ??_7CCriticalSection@@6B@  0042e158     CriticalSection.obj
 0002:0000615c       ??_C@_0DB@BNBDJNPH@GET?5?$CFs?5HTTP?11?41?$AN?6Host?3?5?$CFs?$AN?6Conn@ 0042e15c     FileDownloadHTTP.obj
 0002:00006190       ??_C@_01CLKCMJKC@?5@       0042e190     FileDownloadHTTP.obj
 0002:00006194       ??_C@_08JAFHAICJ@HTTP?11?40@ 0042e194     FileDownloadHTTP.obj
 0002:000061a0       ??_C@_08IJEMDJGI@HTTP?11?41@ 0042e1a0     FileDownloadHTTP.obj
 0002:000061ac       ??_C@_03GACAABJG@?3?1?1@   0042e1ac     FileDownloadURL.obj
 0002:000061b0       ??_C@_03LMDBDBEG@ftp@      0042e1b0     FileDownloadURL.obj
 0002:000061b4       ??_C@_01KMDKNFGN@?1@       0042e1b4     FileDownloadURL.obj
 0002:000061b8       ??_C@_0BF@KGBCIJEO@?4?2AntiHackServer?4ini@ 0042e1b8     HackServer.obj
 0002:000061d0       ??_C@_0BD@JBJNPPMA@AntiHackServerInfo@ 0042e1d0     HackServer.obj
 0002:000061e4       ??_C@_07ENPLOGEN@PREMIUM@  0042e1e4     HackServer.obj
 0002:000061ec       ??_C@_0CL@HLNBLNFJ@?$FL?$CFs?$FN?5TopMu?5AntiHackServer?5?$CIUser@ 0042e1ec     HackServer.obj
 0002:00006218       ??_C@_0CD@EEEDCGMD@WSAStartup?$CI?$CJ?5failed?5with?5error?3@ 0042e218     HackServer.obj
 0002:0000623c       ??_C@_0BD@PLCCJMDH@Connected?5?$CFd?5Users@ 0042e23c     HackServer.obj
 0002:00006250       ??_C@_07JAEGOAMJ@?$CFd?$CJ?4?5?$CFs@ 0042e250     HackServer.obj
 0002:00006258       ??_C@_02DKCKIIND@?$CFs@    0042e258     HackServer.obj
 0002:0000625c       ??_C@_0BF@DKFKNJKD@Ask?5terminate?5server@ 0042e25c     HackServer.obj
 0002:00006274       ??_C@_0CK@CPHHIGPE@Are?5you?5sure?5to?5terminate?5AntiH@ 0042e274     HackServer.obj
 0002:000062a0       ??_C@_0P@JFOLCNLF@DUMP_DETECTION@ 0042e2a0     HackServerProtocol.obj
 0002:000062b0       ??_C@_0BF@MKJGMPLE@EXECUTABLE_DETECTION@ 0042e2b0     HackServerProtocol.obj
 0002:000062c8       ??_C@_0P@DIAHHCAM@FILE_DETECTION@ 0042e2c8     HackServerProtocol.obj
 0002:000062d8       ??_C@_0BH@GAHMJHAK@FILE_MAPPING_DETECTION@ 0042e2d8     HackServerProtocol.obj
 0002:000062f0       ??_C@_0BC@BCBGLHB@LIBRARY_DETECTION@ 0042e2f0     HackServerProtocol.obj
 0002:00006304       ??_C@_0BD@CONKPOKP@REGISTRY_DETECTION@ 0042e304     HackServerProtocol.obj
 0002:00006318       ??_C@_0BB@FMCBIKAD@MEMORY_DETECTION@ 0042e318     HackServerProtocol.obj
 0002:0000632c       ??_C@_0BB@JKCBFLMB@WINDOW_DETECTION@ 0042e32c     HackServerProtocol.obj
 0002:00006340       ??_C@_0BA@MJLLBJJH@MACRO_DETECTION@ 0042e340     HackServerProtocol.obj
 0002:00006350       ??_C@_0BD@HJMECIHL@DEBUGGER_DETECTION@ 0042e350     HackServerProtocol.obj
 0002:00006364       ??_C@_0BC@KNBGAMGO@DEFAULT_DETECTION@ 0042e364     HackServerProtocol.obj
 0002:00006378       ??_C@_0GK@CPLCDGFK@?$FLHackDetected?$FN?$FL?$CFs?$FN?$FL?$CFs?$FN?5IpAddres@ 0042e378     HackServerProtocol.obj
 0002:000063e8       ??_7CHidManager@@6B@       0042e3e8     HidManager.obj
 0002:000063f0       ??_7CIpManager@@6B@        0042e3f0     IpManager.obj
 0002:000063f4       ??_C@_0BI@GMMPBNOK@?4?2?$CFs?2?$CF04d?9?$CF02d?9?$CF02d?4txt@ 0042e3f4     Log.obj
 0002:0000640c       ??_C@_0BE@KLKJJEKO@?$CF02d?3?$CF02d?3?$CF02d?5?$CFs?$AN?6@ 0042e40c     Log.obj
 0002:00006424       ??_7CLog@@6B@              0042e424     Log.obj
 0002:00006428       ??_C@_0BC@JAIHNJEB@?$CFs?5file?5not?5found@ 0042e428     MemScript.obj
 0002:0000643c       ??_C@_02EMFKHFLK@?$CFX@    0042e43c     MemScript.obj
 0002:00006440       ??_C@_01NBENCBCI@?$CK@     0042e440     MemScript.obj
 0002:00006448       ??_7CMemScript@@6B@        0042e448     MemScript.obj
 0002:0000644c       ??_C@_0BH@IILLLNL@?$CFd?9?$CFd?9?$CFd_?$CFdh?$CFdm?$CFds?4dmp@ 0042e44c     MiniDump.obj
 0002:00006464       ??_C@_0P@NKLDDMAF@HackDetect?4dll@ 0042e464     ProcessManager.obj
 0002:00006474       ??_C@_0P@FMNHLPJL@GameServer?4exe@ 0042e474     ProcessManager.obj
 0002:00006484       ??_C@_0DH@OKPNJEPL@?$FLProcessManager?$FN?$FL?$CFd?$FN?$FL?$CFs?$FN?5Could?5@ 0042e484     ProcessManager.obj
 0002:000064bc       ??_C@_0DE@OCAIHMCF@?$FLProcessManager?$FN?$FL?$CFd?$FN?$FL?$CFs?$FN?5Initia@ 0042e4bc     ProcessManager.obj
 0002:000064f0       ??_C@_0N@LOMLCOFC@LoadLibraryA@ 0042e4f0     ProcessManager.obj
 0002:00006500       ??_C@_0N@MDJJJHMB@kernel32?4dll@ 0042e500     ProcessManager.obj
 0002:00006510       ??_C@_08FGMADGLH@XTMPID?$CFd@ 0042e510     ProcessManager.obj
 0002:00006520       ??_7CProcessManager@@6B@   0042e520     ProcessManager.obj
 0002:00006524       ??_C@_0BC@KBDMBKEH@deque?$DMT?$DO?5too?5long@ 0042e524     Queue.obj
 0002:0000653c       ??_7CQueue@@6B@            0042e53c     Queue.obj
 0002:00006540       ??_C@_0DD@IFPOHPKP@?$FLDatabase?$FN?5Please?5wait?5for?5the?5@ 0042e540     ReadFiles.obj
 0002:00006574       ??_C@_0DD@MABLLOCB@?$FLDatabase?$FN?5Please?5wait?5for?5the?5@ 0042e574     ReadFiles.obj
 0002:000065a8       ??_C@_0BN@EBEDDLDK@?4?2Data?2Internal?4List?4part?4db@ 0042e5a8     ReadFiles.obj
 0002:000065c8       ??_C@_0BI@IBLGPMF@?4?2Data?2Internal?4List?4db@ 0042e5c8     ReadFiles.obj
 0002:000065e0       ??_C@_02GMLFBBN@wb@        0042e5e0     ReadFiles.obj
 0002:000065e4       ??_C@_0CN@BJABNFJC@?$FLDatabase?$FN?5Could?5not?5update?5lis@ 0042e5e4     ReadFiles.obj
 0002:00006614       ??_C@_0CA@PGEBOEKD@?$FLDatabase?$FN?5Updated?5successfully@ 0042e614     ReadFiles.obj
 0002:00006634       ??_C@_00CNPNBAHC@@         0042e634     ReadFiles.obj
 0002:0000663c       ??_7CReadFiles@@6B@        0042e63c     ReadFiles.obj
 0002:00006640       ??_C@_05MOECANKB@Times@    0042e640     ServerDisplayer.obj
 0002:00006648       ??_C@_0BB@PKGHDOJN@?1?5STANDBY?5MODE?5?1@ 0042e648     ServerDisplayer.obj
 0002:0000665c       ??_C@_0BA@GFJOGNJC@?1?5ACTIVE?5MODE?5?1@ 0042e65c     ServerDisplayer.obj
 0002:0000666c       ??_C@_04IOBBKNGP@Logs@     0042e66c     ServerDisplayer.obj
 0002:00006674       ??_C@_0O@MLNHGCLL@Logs?2HACK_LOG@ 0042e674     ServerDisplayer.obj
 0002:00006688       ??_7CServerDisplayer@@6B@  0042e688     ServerDisplayer.obj
 0002:0000668c       ??_C@_0BA@GGPBHHI@?4?2Data?2info?4xtm@ 0042e68c     ServerInfo.obj
 0002:0000669c       ??_C@_0DA@LGJCBGGD@?$FLAntiHackServerInfo?$FN?5Config?5loa@ 0042e69c     ServerInfo.obj
 0002:000066cc       ??_C@_0BE@KKEAOHDK@?4?2Data?2Dump?4List?4db@ 0042e6cc     ServerInfo.obj
 0002:000066e0       ??_C@_0DC@BGMCOJOE@?$FLAntiHackServerInfo?$FN?5DumpList?5l@ 0042e6e0     ServerInfo.obj
 0002:00006714       ??_C@_0BI@DMDFEKDO@?4?2Data?2Checksum?4List?4db@ 0042e714     ServerInfo.obj
 0002:0000672c       ??_C@_0DG@LNNHGGCB@?$FLAntiHackServerInfo?$FN?5ChecksumLi@ 0042e72c     ServerInfo.obj
 0002:00006764       ??_C@_0DG@BOOKDJIF@?$FLAntiHackServerInfo?$FN?5InternalLi@ 0042e764     ServerInfo.obj
 0002:0000679c       ??_C@_0BG@MOKOINNO@?4?2Data?2Window?4List?4db@ 0042e79c     ServerInfo.obj
 0002:000067b4       ??_C@_0DE@HOPPAJAF@?$FLAntiHackServerInfo?$FN?5WindowList@ 0042e7b4     ServerInfo.obj
 0002:000067e8       ??_C@_0BA@LJOBOGNM@?4?2BlackList?4txt@ 0042e7e8     ServerInfo.obj
 0002:000067f8       ??_C@_0DD@IBONIONA@?$FLAntiHackServerInfo?$FN?5BlackList?5@ 0042e7f8     ServerInfo.obj
 0002:0000682c       ??_C@_0N@LPMLCGKE@CustomerName@ 0042e82c     ServerInfo.obj
 0002:0000683c       ??_C@_0BD@OPHDIACD@CustomerHardwareId@ 0042e83c     ServerInfo.obj
 0002:00006850       ??_C@_0BD@PGMIKNGA@AntiHackServerPort@ 0042e850     ServerInfo.obj
 0002:00006864       ??_C@_0BA@JDDAMLGO@MaxIpConnection@ 0042e864     ServerInfo.obj
 0002:00006874       ??_C@_0L@NNDIJKLJ@EncDecKey1@ 0042e874     ServerInfo.obj
 0002:00006880       ??_C@_0L@PGBFMJHK@EncDecKey2@ 0042e880     ServerInfo.obj
 0002:0000688c       ??_C@_0BA@JMOPBCGJ@EncDecSetNumber@ 0042e88c     ServerInfo.obj
 0002:0000689c       ??_C@_0O@DNEICACF@ClientVersion@ 0042e89c     ServerInfo.obj
 0002:000068ac       ??_C@_0N@HCBNCEBN@ClientSerial@ 0042e8ac     ServerInfo.obj
 0002:000068bc       ??_C@_0BC@NNFEGJBC@DetectionLockTime@ 0042e8bc     ServerInfo.obj
 0002:000068d0       ??_C@_0BA@KNDGCGML@InternalVersion@ 0042e8d0     ServerInfo.obj
 0002:000068e0       ??_C@_0BA@NOBAJADJ@ReconnectSwitch@ 0042e8e0     ServerInfo.obj
 0002:000068f0       ??_C@_0BC@KKNLIOHP@MemoryGuardSwitch@ 0042e8f0     ServerInfo.obj
 0002:00006904       ??_C@_0BC@NFEIPKJA@MemoryGuardNumber@ 0042e904     ServerInfo.obj
 0002:00006918       ??_C@_0BD@DJDGGNKP@MacroProtectSwitch@ 0042e918     ServerInfo.obj
 0002:0000692c       ??_C@_0BD@EGKFBJEA@MacroProtectNumber@ 0042e92c     ServerInfo.obj
 0002:00006940       ??_C@_0P@LFEFEDNJ@MemoryAddress1@ 0042e940     ServerInfo.obj
 0002:00006950       ??_C@_0P@JOGIBABK@MemoryAddress2@ 0042e950     ServerInfo.obj
 0002:00006960       ??_C@_0P@IHHDCBFL@MemoryAddress3@ 0042e960     ServerInfo.obj
 0002:00006970       ??_C@_0P@MIDCLHJM@MemoryAddress4@ 0042e970     ServerInfo.obj
 0002:00006980       ??_C@_0P@NBCJIGNN@MemoryAddress5@ 0042e980     ServerInfo.obj
 0002:00006990       ??_C@_0P@PKAENFBO@MemoryAddress6@ 0042e990     ServerInfo.obj
 0002:000069a0       ??_C@_0P@ODBPOEFP@MemoryAddress7@ 0042e9a0     ServerInfo.obj
 0002:000069b0       ??_C@_0P@GEIHPIJA@MemoryAddress8@ 0042e9b0     ServerInfo.obj
 0002:000069c4       ??_7CServerInfo@@6B@       0042e9c4     ServerInfo.obj
 0002:000069c8       ??_C@_0CM@KAMGEMDF@?$FLSocketManager?$FN?5Server?5started?5@ 0042e9c8     SocketManager.obj
 0002:000069f4       ??_C@_0DC@MEBPENFN@?$FLSocketManager?$FN?5WSASocket?$CI?$CJ?5fai@ 0042e9f4     SocketManager.obj
 0002:00006a28       ??_C@_0CN@DCBCKDHG@?$FLSocketManager?$FN?5bind?$CI?$CJ?5failed?5w@ 0042ea28     SocketManager.obj
 0002:00006a58       ??_C@_0CP@LJKHBDGD@?$FLSocketManager?$FN?5listen?$CI?$CJ?5failed@ 0042ea58     SocketManager.obj
 0002:00006a88       ??_C@_0CP@PPBDHCDJ@?$FLSocketManager?$FN?5socket?$CI?$CJ?5failed@ 0042ea88     SocketManager.obj
 0002:00006ab8       ??_C@_0DP@ICIIFOIO@?$FLSocketManager?$FN?5CreateIoComplet@ 0042eab8     SocketManager.obj
 0002:00006af8       ??_C@_0DF@KLMIPFHB@?$FLSocketManager?$FN?5CreateThread?$CI?$CJ?5@ 0042eaf8     SocketManager.obj
 0002:00006b30       ??_C@_0DK@HBHPIDEM@?$FLSocketManager?$FN?5SetThreadPriori@ 0042eb30     SocketManager.obj
 0002:00006b6c       ??_C@_0DI@NJICOKBD@?$FLSocketManager?$FN?5CreateSemaphore@ 0042eb6c     SocketManager.obj
 0002:00006ba4       ??_C@_0DO@CPEPCKLC@?$FLSocketManager?$FN?5Protocol?5header@ 0042eba4     SocketManager.obj
 0002:00006be8       ??_C@_0FA@ICNFAKBF@?$FLSocketManager?$FN?5Protocol?5size?5e@ 0042ebe8     SocketManager.obj
 0002:00006c38       ??_C@_0DM@MLAHEMEP@?$FLSocketManager?$FN?5Max?5msg?5size?5?$CIT@ 0042ec38     SocketManager.obj
 0002:00006c74       ??_C@_0DM@JDBJOFGH@?$FLSocketManager?$FN?5Max?5msg?5size?5?$CIT@ 0042ec74     SocketManager.obj
 0002:00006cb0       ??_C@_0DA@BOBEBEJH@?$FLSocketManager?$FN?5WSASend?$CI?$CJ?5faile@ 0042ecb0     SocketManager.obj
 0002:00006ce0       ??_C@_0DE@KNKIHNML@?$FLSocketManager?$FN?5closesocket?$CI?$CJ?5f@ 0042ece0     SocketManager.obj
 0002:00006d14       ??_C@_0DA@PEEHLCK@?$FLSocketManager?$FN?5WSARecv?$CI?$CJ?5faile@ 0042ed14     SocketManager.obj
 0002:00006d44       ??_C@_0DC@KHPBLODJ@?$FLSocketManager?$FN?5WSAAccept?$CI?$CJ?5fai@ 0042ed44     SocketManager.obj
 0002:00006d78       ??_C@_0EC@ENPGAEAB@?$FLSocketManager?$FN?5GetQueuedComple@ 0042ed78     SocketManager.obj
 0002:00006dbc       ??_C@_0DM@LIBLJDKP@?$FLSocketManager?$FN?5WaitForSingleOb@ 0042edbc     SocketManager.obj
 0002:00006dfc       ??_7CSocketManager@@6B@    0042edfc     SocketManager.obj
 0002:00006e00       ??_C@_05NAOIJFC@Error@     0042ee00     Util.obj
 0002:00006e08       ??_C@_07HIDEBALK@?$CF?48s?5?$CFs@ 0042ee08     Util.obj
 0002:00006e10       __real@bf800000            0042ee10     MemScript.obj
 0002:00006e20       __xmm@a0a0a0a0a0a0a0a0a0a0a0a0a0a0a0a0 0042ee20     Util.obj
 0002:00006e30       __load_config_used         0042ee30     LIBCMT:loadcfg.obj
 0002:00006f80       ??_R4logic_error@std@@6B@  0042ef80     libcpmt:xthrow.obj
 0002:00006f94       ??_R3logic_error@std@@8    0042ef94     libcpmt:xthrow.obj
 0002:00006fa4       ??_R2logic_error@std@@8    0042efa4     libcpmt:xthrow.obj
 0002:00006fb0       ??_R1A@?0A@EA@logic_error@std@@8 0042efb0     libcpmt:xthrow.obj
 0002:00006fcc       ??_R4length_error@std@@6B@ 0042efcc     libcpmt:xthrow.obj
 0002:00006fe0       ??_R3length_error@std@@8   0042efe0     libcpmt:xthrow.obj
 0002:00006ff0       ??_R2length_error@std@@8   0042eff0     libcpmt:xthrow.obj
 0002:00007000       ??_R1A@?0A@EA@length_error@std@@8 0042f000     libcpmt:xthrow.obj
 0002:0000701c       ??_R4type_info@@6B@        0042f01c     LIBCMT:std_type_info_static.obj
 0002:00007030       ??_R3type_info@@8          0042f030     LIBCMT:std_type_info_static.obj
 0002:00007040       ??_R2type_info@@8          0042f040     LIBCMT:std_type_info_static.obj
 0002:00007048       ??_R1A@?0A@EA@type_info@@8 0042f048     LIBCMT:std_type_info_static.obj
 0002:00007064       ??_R4bad_exception@std@@6B@ 0042f064     libvcruntime:frame.obj
 0002:00007078       ??_R3bad_exception@std@@8  0042f078     libvcruntime:frame.obj
 0002:00007088       ??_R2bad_exception@std@@8  0042f088     libvcruntime:frame.obj
 0002:00007094       ??_R1A@?0A@EA@bad_exception@std@@8 0042f094     libvcruntime:frame.obj
 0002:000070b0       ??_R2CAuthenticate@@8      0042f0b0     Authenticate.obj
 0002:000070b8       ??_R1A@?0A@EA@CAuthenticate@@8 0042f0b8     Authenticate.obj
 0002:000070d4       ??_R3CAuthenticate@@8      0042f0d4     Authenticate.obj
 0002:000070e4       ??_R4CAuthenticate@@6B@    0042f0e4     Authenticate.obj
 0002:000070f8       ??_R2CBlackList@@8         0042f0f8     BlackList.obj
 0002:00007100       ??_R1A@?0A@EA@CBlackList@@8 0042f100     BlackList.obj
 0002:0000711c       ??_R3CBlackList@@8         0042f11c     BlackList.obj
 0002:0000712c       ??_R4CBlackList@@6B@       0042f12c     BlackList.obj
 0002:00007140       ??_R1A@?0A@EA@bad_array_new_length@std@@8 0042f140     BlackList.obj
 0002:0000715c       ??_R2bad_array_new_length@std@@8 0042f15c     BlackList.obj
 0002:0000716c       ??_R3bad_array_new_length@std@@8 0042f16c     BlackList.obj
 0002:0000717c       ??_R4bad_array_new_length@std@@6B@ 0042f17c     BlackList.obj
 0002:00007190       ??_R1A@?0A@EA@bad_alloc@std@@8 0042f190     BlackList.obj
 0002:000071ac       ??_R2bad_alloc@std@@8      0042f1ac     BlackList.obj
 0002:000071b8       ??_R3bad_alloc@std@@8      0042f1b8     BlackList.obj
 0002:000071c8       ??_R4bad_alloc@std@@6B@    0042f1c8     BlackList.obj
 0002:000071dc       ??_R1A@?0A@EA@exception@std@@8 0042f1dc     BlackList.obj
 0002:000071f8       ??_R2exception@std@@8      0042f1f8     BlackList.obj
 0002:00007200       ??_R3exception@std@@8      0042f200     BlackList.obj
 0002:00007210       ??_R4exception@std@@6B@    0042f210     BlackList.obj
 0002:00007224       ??_R2CClientManager@@8     0042f224     ClientManager.obj
 0002:0000722c       ??_R1A@?0A@EA@CClientManager@@8 0042f22c     ClientManager.obj
 0002:00007248       ??_R3CClientManager@@8     0042f248     ClientManager.obj
 0002:00007258       ??_R4CClientManager@@6B@   0042f258     ClientManager.obj
 0002:0000726c       ??_R2CCriticalSection@@8   0042f26c     CriticalSection.obj
 0002:00007274       ??_R1A@?0A@EA@CCriticalSection@@8 0042f274     CriticalSection.obj
 0002:00007290       ??_R3CCriticalSection@@8   0042f290     CriticalSection.obj
 0002:000072a0       ??_R4CCriticalSection@@6B@ 0042f2a0     CriticalSection.obj
 0002:000072b4       ??_R2CHidManager@@8        0042f2b4     HidManager.obj
 0002:000072bc       ??_R1A@?0A@EA@CHidManager@@8 0042f2bc     HidManager.obj
 0002:000072d8       ??_R3CHidManager@@8        0042f2d8     HidManager.obj
 0002:000072e8       ??_R4CHidManager@@6B@      0042f2e8     HidManager.obj
 0002:000072fc       ??_R2CIpManager@@8         0042f2fc     IpManager.obj
 0002:00007304       ??_R1A@?0A@EA@CIpManager@@8 0042f304     IpManager.obj
 0002:00007320       ??_R3CIpManager@@8         0042f320     IpManager.obj
 0002:00007330       ??_R4CIpManager@@6B@       0042f330     IpManager.obj
 0002:00007344       ??_R2CLog@@8               0042f344     Log.obj
 0002:0000734c       ??_R1A@?0A@EA@CLog@@8      0042f34c     Log.obj
 0002:00007368       ??_R3CLog@@8               0042f368     Log.obj
 0002:00007378       ??_R4CLog@@6B@             0042f378     Log.obj
 0002:0000738c       ??_R2CMemScript@@8         0042f38c     MemScript.obj
 0002:00007394       ??_R1A@?0A@EA@CMemScript@@8 0042f394     MemScript.obj
 0002:000073b0       ??_R3CMemScript@@8         0042f3b0     MemScript.obj
 0002:000073c0       ??_R4CMemScript@@6B@       0042f3c0     MemScript.obj
 0002:000073d4       ??_R2CProcessManager@@8    0042f3d4     ProcessManager.obj
 0002:000073dc       ??_R1A@?0A@EA@CProcessManager@@8 0042f3dc     ProcessManager.obj
 0002:000073f8       ??_R3CProcessManager@@8    0042f3f8     ProcessManager.obj
 0002:00007408       ??_R4CProcessManager@@6B@  0042f408     ProcessManager.obj
 0002:0000741c       ??_R2CQueue@@8             0042f41c     Queue.obj
 0002:00007424       ??_R1A@?0A@EA@CQueue@@8    0042f424     Queue.obj
 0002:00007440       ??_R3CQueue@@8             0042f440     Queue.obj
 0002:00007450       ??_R4CQueue@@6B@           0042f450     Queue.obj
 0002:00007464       ??_R2CReadFiles@@8         0042f464     ReadFiles.obj
 0002:0000746c       ??_R1A@?0A@EA@CReadFiles@@8 0042f46c     ReadFiles.obj
 0002:00007488       ??_R3CReadFiles@@8         0042f488     ReadFiles.obj
 0002:00007498       ??_R4CReadFiles@@6B@       0042f498     ReadFiles.obj
 0002:000074ac       ??_R2CServerDisplayer@@8   0042f4ac     ServerDisplayer.obj
 0002:000074b4       ??_R1A@?0A@EA@CServerDisplayer@@8 0042f4b4     ServerDisplayer.obj
 0002:000074d0       ??_R3CServerDisplayer@@8   0042f4d0     ServerDisplayer.obj
 0002:000074e0       ??_R4CServerDisplayer@@6B@ 0042f4e0     ServerDisplayer.obj
 0002:000074f4       ??_R2CServerInfo@@8        0042f4f4     ServerInfo.obj
 0002:000074fc       ??_R1A@?0A@EA@CServerInfo@@8 0042f4fc     ServerInfo.obj
 0002:00007518       ??_R3CServerInfo@@8        0042f518     ServerInfo.obj
 0002:00007528       ??_R4CServerInfo@@6B@      0042f528     ServerInfo.obj
 0002:0000753c       ??_R2CSocketManager@@8     0042f53c     SocketManager.obj
 0002:00007544       ??_R1A@?0A@EA@CSocketManager@@8 0042f544     SocketManager.obj
 0002:00007560       ??_R3CSocketManager@@8     0042f560     SocketManager.obj
 0002:00007570       ??_R4CSocketManager@@6B@   0042f570     SocketManager.obj
 0002:00007584       ___safe_se_handler_table   0042f584     <linker-defined>
 0002:000075f4       ___volatile_metadata       0042f5f4     <linker-defined>
 0002:00007a68       ___rtc_iaa                 0042fa68     LIBCMT:initsect.obj
 0002:00007a6c       ___rtc_izz                 0042fa6c     LIBCMT:initsect.obj
 0002:00007a70       ___rtc_taa                 0042fa70     LIBCMT:initsect.obj
 0002:00007a74       ___rtc_tzz                 0042fa74     LIBCMT:initsect.obj
 0002:00007f6c       __TI2?AVbad_alloc@std@@    0042ff6c     libcpmt:xthrow.obj
 0002:00007f7c       __CTA2?AVbad_alloc@std@@   0042ff7c     libcpmt:xthrow.obj
 0002:00007f88       __CT??_R0?AVlogic_error@std@@@8??0logic_error@std@@QAE@ABV01@@Z12 0042ff88     libcpmt:xthrow.obj
 0002:00007fa4       __TI3?AVlength_error@std@@ 0042ffa4     libcpmt:xthrow.obj
 0002:00007fb4       __CTA3?AVlength_error@std@@ 0042ffb4     libcpmt:xthrow.obj
 0002:00007fc4       __CT??_R0?AVlength_error@std@@@8??0length_error@std@@QAE@ABV01@@Z12 0042ffc4     libcpmt:xthrow.obj
 0002:00008184       __TI2?AVbad_exception@std@@ 00430184     libvcruntime:frame.obj
 0002:00008194       __CTA2?AVbad_exception@std@@ 00430194     libvcruntime:frame.obj
 0002:000081a0       __CT??_R0?AVbad_exception@std@@@8??0bad_exception@std@@QAE@ABV01@@Z12 004301a0     libvcruntime:frame.obj
 0002:0000872c       __CT??_R0?AVbad_array_new_length@std@@@8??0bad_array_new_length@std@@QAE@ABV01@@Z12 0043072c     BlackList.obj
 0002:00008748       __CT??_R0?AVbad_alloc@std@@@8??0bad_alloc@std@@QAE@ABV01@@Z12 00430748     BlackList.obj
 0002:00008764       __CT??_R0?AVexception@std@@@8??0exception@std@@QAE@ABV01@@Z12 00430764     BlackList.obj
 0002:00008780       __CTA3?AVbad_array_new_length@std@@ 00430780     BlackList.obj
 0002:00008790       __TI3?AVbad_array_new_length@std@@ 00430790     BlackList.obj
 0002:000087a0       __CTA1H                    004307a0     MemScript.obj
 0002:000087a8       __CT??_R0H@84              004307a8     MemScript.obj
 0002:000087c4       __TI1H                     004307c4     MemScript.obj
 0002:000087d4       __IMPORT_DESCRIPTOR_KERNEL32 004307d4     kernel32:KERNEL32.dll
 0002:000087e8       __IMPORT_DESCRIPTOR_USER32 004307e8     user32:USER32.dll
 0002:000087fc       __IMPORT_DESCRIPTOR_GDI32  004307fc     gdi32:GDI32.dll
 0002:00008810       __IMPORT_DESCRIPTOR_WS2_32 00430810     ws2_32:WS2_32.dll
 0002:00008824       __IMPORT_DESCRIPTOR_dbghelp 00430824     dbghelp:dbghelp.dll
 0002:00008838       __IMPORT_DESCRIPTOR_PSAPI  00430838     Psapi:PSAPI.DLL
 0002:0000884c       __NULL_IMPORT_DESCRIPTOR   0043084c     kernel32:KERNEL32.dll
 0003:00000000       ___scrt_native_dllmain_reason 00432000     LIBCMT:utility.obj
 0003:00000004       ___security_cookie         00432004     LIBCMT:gs_cookie.obj
 0003:00000008       ___security_cookie_complement 00432008     LIBCMT:gs_cookie.obj
 0003:0000000c       ___isa_enabled             0043200c     LIBCMT:cpu_disp.obj
 0003:00000010       ___scrt_default_matherr    00432010     LIBCMT:matherr.obj
 0003:00000030       __NLG_Destination          00432030     libvcruntime:exsup.obj
 0003:00000040       ___abort_behavior          00432040     libucrt:abort.obj
 0003:00000060       ___acrt_initial_locale_data 00432060     libucrt:nlsdata.obj
 0003:00000118       ___acrt_initial_locale_pointers 00432118     libucrt:nlsdata.obj
 0003:00000120       ___acrt_wide_c_locale_string 00432120     libucrt:nlsdata.obj
 0003:00000128       __iob                      00432128     libucrt:_file.obj
 0003:000001d0       __lookuptrailbytes         004321d0     libucrt:read.obj
 0003:000002d0       __pwctype                  004322d0     libucrt:ctype.obj
 0003:000002d8       ___badioinfo               004322d8     libucrt:ioinit.obj
 0003:000004b8       ___acrt_initial_multibyte_data 004324b8     libucrt:mbctype.obj
 0003:000009d8       ___acrt_lconv_c            004329d8     libucrt:localeconv.obj
 0003:00000a28       ___acrt_lconv_static_decimal 00432a28     libucrt:localeconv.obj
 0003:00000a2c       ___acrt_lconv_static_W_decimal 00432a2c     libucrt:localeconv.obj
 0003:00000a30       ___globallocalestatus      00432a30     libucrt:glstatus.obj
 0003:00000a60       __fltused                  00432a60     LIBCMT:fltused.obj
 0003:00000a70       ?gAuthenticate@@3VCAuthenticate@@A 00432a70     Authenticate.obj
 0003:00004aa8       ?gBlackList@@3VCBlackList@@A 00436aa8     BlackList.obj
 0003:00004ac4       ?gHidManager@@3VCHidManager@@A 00436ac4     HidManager.obj
 0003:00004ad4       ?gIpManager@@3VCIpManager@@A 00436ad4     IpManager.obj
 0003:00004ae0       ?gLog@@3VCLog@@A           00436ae0     Log.obj
 0003:00004f10       ?gProcessManager@@3VCProcessManager@@A 00436f10     ProcessManager.obj
 0003:00004f38       ?gReadFiles@@3VCReadFiles@@A 00436f38     ReadFiles.obj
 0003:00004f70       ?gServerDisplayer@@3VCServerDisplayer@@A 00436f70     ServerDisplayer.obj
 0003:00005c38       ?gServerInfo@@3VCServerInfo@@A 00437c38     ServerInfo.obj
 0003:00005cf0       ?gSocketManager@@3VCSocketManager@@A 00437cf0     SocketManager.obj
 0003:00005d80       ??_R0?AVlogic_error@std@@@8 00437d80     libcpmt:xthrow.obj
 0003:00005da0       ??_R0?AVlength_error@std@@@8 00437da0     libcpmt:xthrow.obj
 0003:00005dc0       ??_R0?AVbad_exception@std@@@8 00437dc0     libvcruntime:frame.obj
 0003:00005de0       ??_R0?AVbad_array_new_length@std@@@8 00437de0     BlackList.obj
 0003:00005e08       ??_R0?AVbad_alloc@std@@@8  00437e08     BlackList.obj
 0003:00005e24       ??_R0?AVexception@std@@@8  00437e24     BlackList.obj
 0003:00005e40       ??_R0H@8                   00437e40     MemScript.obj
 0003:00005e4c       ??_R0?AVtype_info@@@8      00437e4c     LIBCMT:std_type_info_static.obj
 0003:00005e64       ??_R0?AVCAuthenticate@@@8  00437e64     Authenticate.obj
 0003:00005e80       ??_R0?AVCBlackList@@@8     00437e80     BlackList.obj
 0003:00005e9c       ??_R0?AVCClientManager@@@8 00437e9c     ClientManager.obj
 0003:00005ebc       ??_R0?AVCCriticalSection@@@8 00437ebc     CriticalSection.obj
 0003:00005edc       ??_R0?AVCHidManager@@@8    00437edc     HidManager.obj
 0003:00005ef8       ??_R0?AVCIpManager@@@8     00437ef8     IpManager.obj
 0003:00005f14       ??_R0?AVCLog@@@8           00437f14     Log.obj
 0003:00005f28       ??_R0?AVCMemScript@@@8     00437f28     MemScript.obj
 0003:00005f44       ??_R0?AVCProcessManager@@@8 00437f44     ProcessManager.obj
 0003:00005f64       ??_R0?AVCQueue@@@8         00437f64     Queue.obj
 0003:00005f7c       ??_R0?AVCReadFiles@@@8     00437f7c     ReadFiles.obj
 0003:00005f98       ??_R0?AVCServerDisplayer@@@8 00437f98     ServerDisplayer.obj
 0003:00005fb8       ??_R0?AVCServerInfo@@@8    00437fb8     ServerInfo.obj
 0003:00005fd4       ??_R0?AVCSocketManager@@@8 00437fd4     SocketManager.obj
 0003:00005ff8       ___scrt_current_native_startup_state 00437ff8     LIBCMT:utility.obj
 0003:00005ffc       ___scrt_native_startup_lock 00437ffc     LIBCMT:utility.obj
 0003:0000633c       ___isa_available           0043833c     LIBCMT:cpu_disp.obj
 0003:00006340       ___favor                   00438340     LIBCMT:cpu_disp.obj
 0003:00006344       ___scrt_debugger_hook_flag 00438344     LIBCMT:utility_desktop.obj
 0003:00006348       ?__type_info_root_node@@3U__type_info_node@@A 00438348     LIBCMT:tncleanup.obj
 0003:00006350       ?__WinRTOutOfMemoryExceptionCallback@@3P6GPAXXZA 00438350     libvcruntime:ehhelpers.obj
 0003:00006398       ?pArgList@UnDecorator@@0PAVReplicator@@A 00438398     libvcruntime:undname.obj
 0003:0000639c       ?pZNameList@UnDecorator@@0PAVReplicator@@A 0043839c     libvcruntime:undname.obj
 0003:000063a0       ?pTemplateArgList@UnDecorator@@0PAVReplicator@@A 004383a0     libvcruntime:undname.obj
 0003:000063a4       ?gName@UnDecorator@@0PBDB  004383a4     libvcruntime:undname.obj
 0003:000063a8       ?name@UnDecorator@@0PBDB   004383a8     libvcruntime:undname.obj
 0003:000063ac       ?disableFlags@UnDecorator@@0KA 004383ac     libvcruntime:undname.obj
 0003:000063b0       ?fExplicitTemplateParams@UnDecorator@@0_NA 004383b0     libvcruntime:undname.obj
 0003:000063b1       ?fGetTemplateArgumentList@UnDecorator@@0_NA 004383b1     libvcruntime:undname.obj
 0003:000063b4       ?m_pGetParameter@UnDecorator@@0P6APADJ@ZA 004383b4     libvcruntime:undname.obj
 0003:000063b8       ?m_CHPENameOffset@UnDecorator@@0KA 004383b8     libvcruntime:undname.obj
 0003:000063bc       ?m_recursionLevel@UnDecorator@@0KA 004383bc     libvcruntime:undname.obj
 0003:000063f4       ___pPurecall               004383f4     libvcruntime:purevirt_data.obj
 0003:00006404       ?c_exit_complete@?1???R<lambda_6e4b09c48022b2350581041d5f6b0c4c>@@QBE@XZ@4_NA 00438404     libucrt:exit.obj
 0003:00006510       __environ_table            00438510     libucrt:environment_initialization.obj
 0003:00006514       __wenviron_table           00438514     libucrt:environment_initialization.obj
 0003:00006518       ___dcrt_initial_wide_environment 00438518     libucrt:environment_initialization.obj
 0003:0000651c       ___dcrt_initial_narrow_environment 0043851c     libucrt:environment_initialization.obj
 0003:00006520       ___acrt_atexit_table       00438520     libucrt:onexit.obj
 0003:0000652c       ___acrt_at_quick_exit_table 0043852c     libucrt:onexit.obj
 0003:00006548       ___acrt_locale_changed_data 00438548     libucrt:wsetlocale.obj
 0003:00006550       __commode                  00438550     libucrt:ncommode.obj
 0003:00006554       ___acrt_current_locale_data 00438554     libucrt:nlsdata.obj
 0003:00006558       __nstream                  00438558     libucrt:_file.obj
 0003:0000655c       ___piob                    0043855c     libucrt:_file.obj
 0003:00006560       __cflush                   00438560     libucrt:_file.obj
 0003:00006570       ___acrt_stdout_buffer      00438570     libucrt:_sftbuf.obj
 0003:00006574       ___acrt_stderr_buffer      00438574     libucrt:_sftbuf.obj
 0003:00006578       ___pioinfo                 00438578     libucrt:ioinit.obj
 0003:00006778       __nhandle                  00438778     libucrt:ioinit.obj
 0003:00006858       ?_timezone@@3V?$dual_state_global@J@__crt_state_management@@A 00438858     libucrt:timeset.obj
 0003:0000685c       ?_daylight@@3V?$dual_state_global@H@__crt_state_management@@A 0043885c     libucrt:timeset.obj
 0003:00006860       ?_dstbias@@3V?$dual_state_global@J@__crt_state_management@@A 00438860     libucrt:timeset.obj
 0003:00006a7c       __mbctype                  00438a7c     libucrt:mbctype.obj
 0003:00006a80       __mbcasemap                00438a80     libucrt:mbctype.obj
 0003:00006a84       ___acrt_current_multibyte_data 00438a84     libucrt:mbctype.obj
 0003:00006a90       __pgmptr                   00438a90     libucrt:argv_data.obj
 0003:00006a94       ___argc                    00438a94     libucrt:argv_data.obj
 0003:00006a98       ___argv                    00438a98     libucrt:argv_data.obj
 0003:00006a9c       ___wargv                   00438a9c     libucrt:argv_data.obj
 0003:00006aa0       __acmdln                   00438aa0     libucrt:argv_data.obj
 0003:00006aa4       __wcmdln                   00438aa4     libucrt:argv_data.obj
 0003:00006aa8       ___acrt_heap               00438aa8     libucrt:heap_handle.obj
 0003:00006abc       __fmode                    00438abc     libucrt:txtmode.obj
 0003:00006ac0       ___acrt_lconv_static_null  00438ac0     libucrt:localeconv.obj
 0003:00006ac4       ___acrt_lconv_static_W_null 00438ac4     libucrt:localeconv.obj
 0003:00006ac8       __umaskval                 00438ac8     libucrt:umask.obj
 0003:00006ad4       ___fastflag                00438ad4     libucrt:fp_flags.obj
 0003:00006ae0       ?_OptionsStorage@?1??__local_stdio_printf_options@@9@4_KA 00438ae0     FileDownloadHTTP.obj
 0003:00006ae8       ?_httpErrorCode@@3HA       00438ae8     FileDownloadHTTP.obj
 0003:00006aec       ?hWnd@@3PAUHWND__@@A       00438aec     HackServer.obj
 0003:00006af0       ?szWindowClass@@3PADA      00438af0     HackServer.obj
 0003:00006b54       ?hInst@@3PAUHINSTANCE__@@A 00438b54     HackServer.obj
 0003:00006b58       ?szTitle@@3PADA            00438b58     HackServer.obj
 0003:00006bbc       ?PreviousExceptionFilter@@3P6GJPAU_EXCEPTION_POINTERS@@@ZA 00438bbc     MiniDump.obj
 0003:00006bc0       ?gClientCount@@3HA         00438bc0     Util.obj
 0003:00006bc8       ?gClientManager@@3PAVCClientManager@@A 00438bc8     ClientManager.obj
 0003:000770a8       ?_OptionsStorage@?1??__local_stdio_scanf_options@@9@4_KA 004a90a8     MemScript.obj
 0003:000770b0       ___@@_PchSym_@00@UfhvihUzwnrmUwldmolzwhUzmgrszxpUnskPzmgrszxpPufoohlfixvUhlfixvUszxphvieviUszxphvieviUivovzhvUhgwzucOlyq@4B2008FD98C1DD4 004a90b0     stdafx.obj
 0003:0007b0c8       ___dyn_tls_dtor_callback   004ad0c8     <common>
 0003:0007b0cc       ___dyn_tls_init_callback   004ad0cc     <common>
 0003:0007b0d0       ___scrt_ucrt_dll_is_in_use 004ad0d0     <common>
 0003:0007b0d4       __pmatherr                 004ad0d4     <common>
 0003:0007b0d8       ___use_sse2_mathfcns       004ad0d8     <common>

 entry point at        0001:00009fcf

 Static symbols

 0000:fff05000       .debug$S                   00400000     Psapi:PSAPI.DLL
 0000:fff05000       .debug$S                   00400000     Psapi:PSAPI.DLL
 0000:fff05000       .debug$S                   00400000     Psapi:PSAPI.DLL
 0000:fff05000       .debug$S                   00400000     Psapi:PSAPI.DLL
 0000:fff05000       .debug$S                   00400000     Rpcrt4:RPCRT4.dll
 0002:fffd8000       .idata$6                   00400000     Rpcrt4:RPCRT4.dll
 0000:fff05000       .debug$S                   00400000     dbghelp:dbghelp.dll
 0000:fff05000       .debug$S                   00400000     gdi32:GDI32.dll
 0000:fff05000       .debug$S                   00400000     gdi32:GDI32.dll
 0000:fff05000       .debug$S                   00400000     gdi32:GDI32.dll
 0000:fff05000       .debug$S                   00400000     gdi32:GDI32.dll
 0000:fff05000       .debug$S                   00400000     gdi32:GDI32.dll
 0000:fff05000       .debug$S                   00400000     gdi32:GDI32.dll
 0000:fff05000       .debug$S                   00400000     gdi32:GDI32.dll
 0000:fff05000       .debug$S                   00400000     gdi32:GDI32.dll
 0000:fff05000       .debug$S                   00400000     kernel32:KERNEL32.dll
 0000:fff05000       .debug$S                   00400000     kernel32:KERNEL32.dll
 0000:fff05000       .debug$S                   00400000     kernel32:KERNEL32.dll
 0000:fff05000       .debug$S                   00400000     kernel32:KERNEL32.dll
 0000:fff05000       .debug$S                   00400000     kernel32:KERNEL32.dll
 0000:fff05000       .debug$S                   00400000     kernel32:KERNEL32.dll
 0000:fff05000       .debug$S                   00400000     kernel32:KERNEL32.dll
 0000:fff05000       .debug$S                   00400000     kernel32:KERNEL32.dll
 0000:fff05000       .debug$S                   00400000     kernel32:KERNEL32.dll
 0000:fff05000       .debug$S                   00400000     kernel32:KERNEL32.dll
 0000:fff05000       .debug$S                   00400000     kernel32:KERNEL32.dll
 0000:fff05000       .debug$S                   00400000     kernel32:KERNEL32.dll
 0000:fff05000       .debug$S                   00400000     kernel32:KERNEL32.dll
 0000:fff05000       .debug$S                   00400000     kernel32:KERNEL32.dll
 0000:fff05000       .debug$S                   00400000     kernel32:KERNEL32.dll
 0000:fff05000       .debug$S                   00400000     kernel32:KERNEL32.dll
 0000:fff05000       .debug$S                   00400000     kernel32:KERNEL32.dll
 0000:fff05000       .debug$S                   00400000     kernel32:KERNEL32.dll
 0000:fff05000       .debug$S                   00400000     kernel32:KERNEL32.dll
 0000:fff05000       .debug$S                   00400000     kernel32:KERNEL32.dll
 0000:fff05000       .debug$S                   00400000     kernel32:KERNEL32.dll
 0000:fff05000       .debug$S                   00400000     kernel32:KERNEL32.dll
 0000:fff05000       .debug$S                   00400000     kernel32:KERNEL32.dll
 0000:fff05000       .debug$S                   00400000     kernel32:KERNEL32.dll
 0000:fff05000       .debug$S                   00400000     kernel32:KERNEL32.dll
 0000:fff05000       .debug$S                   00400000     kernel32:KERNEL32.dll
 0000:fff05000       .debug$S                   00400000     kernel32:KERNEL32.dll
 0000:fff05000       .debug$S                   00400000     kernel32:KERNEL32.dll
 0000:fff05000       .debug$S                   00400000     kernel32:KERNEL32.dll
 0000:fff05000       .debug$S                   00400000     kernel32:KERNEL32.dll
 0000:fff05000       .debug$S                   00400000     kernel32:KERNEL32.dll
 0000:fff05000       .debug$S                   00400000     kernel32:KERNEL32.dll
 0000:fff05000       .debug$S                   00400000     kernel32:KERNEL32.dll
 0000:fff05000       .debug$S                   00400000     kernel32:KERNEL32.dll
 0000:fff05000       .debug$S                   00400000     kernel32:KERNEL32.dll
 0000:fff05000       .debug$S                   00400000     kernel32:KERNEL32.dll
 0000:fff05000       .debug$S                   00400000     kernel32:KERNEL32.dll
 0000:fff05000       .debug$S                   00400000     kernel32:KERNEL32.dll
 0000:fff05000       .debug$S                   00400000     kernel32:KERNEL32.dll
 0000:fff05000       .debug$S                   00400000     kernel32:KERNEL32.dll
 0000:fff05000       .debug$S                   00400000     kernel32:KERNEL32.dll
 0000:fff05000       .debug$S                   00400000     kernel32:KERNEL32.dll
 0000:fff05000       .debug$S                   00400000     kernel32:KERNEL32.dll
 0000:fff05000       .debug$S                   00400000     kernel32:KERNEL32.dll
 0000:fff05000       .debug$S                   00400000     kernel32:KERNEL32.dll
 0000:fff05000       .debug$S                   00400000     kernel32:KERNEL32.dll
 0000:fff05000       .debug$S                   00400000     kernel32:KERNEL32.dll
 0000:fff05000       .debug$S                   00400000     kernel32:KERNEL32.dll
 0000:fff05000       .debug$S                   00400000     kernel32:KERNEL32.dll
 0000:fff05000       .debug$S                   00400000     kernel32:KERNEL32.dll
 0000:fff05000       .debug$S                   00400000     kernel32:KERNEL32.dll
 0000:fff05000       .debug$S                   00400000     kernel32:KERNEL32.dll
 0000:fff05000       .debug$S                   00400000     kernel32:KERNEL32.dll
 0000:fff05000       .debug$S                   00400000     kernel32:KERNEL32.dll
 0000:fff05000       .debug$S                   00400000     kernel32:KERNEL32.dll
 0000:fff05000       .debug$S                   00400000     kernel32:KERNEL32.dll
 0000:fff05000       .debug$S                   00400000     kernel32:KERNEL32.dll
 0000:fff05000       .debug$S                   00400000     kernel32:KERNEL32.dll
 0000:fff05000       .debug$S                   00400000     kernel32:KERNEL32.dll
 0000:fff05000       .debug$S                   00400000     kernel32:KERNEL32.dll
 0000:fff05000       .debug$S                   00400000     kernel32:KERNEL32.dll
 0000:fff05000       .debug$S                   00400000     kernel32:KERNEL32.dll
 0000:fff05000       .debug$S                   00400000     kernel32:KERNEL32.dll
 0000:fff05000       .debug$S                   00400000     kernel32:KERNEL32.dll
 0000:fff05000       .debug$S                   00400000     kernel32:KERNEL32.dll
 0000:fff05000       .debug$S                   00400000     kernel32:KERNEL32.dll
 0000:fff05000       .debug$S                   00400000     kernel32:KERNEL32.dll
 0000:fff05000       .debug$S                   00400000     kernel32:KERNEL32.dll
 0000:fff05000       .debug$S                   00400000     kernel32:KERNEL32.dll
 0000:fff05000       .debug$S                   00400000     kernel32:KERNEL32.dll
 0000:fff05000       .debug$S                   00400000     kernel32:KERNEL32.dll
 0000:fff05000       .debug$S                   00400000     kernel32:KERNEL32.dll
 0000:fff05000       .debug$S                   00400000     kernel32:KERNEL32.dll
 0000:fff05000       .debug$S                   00400000     kernel32:KERNEL32.dll
 0000:fff05000       .debug$S                   00400000     kernel32:KERNEL32.dll
 0000:fff05000       .debug$S                   00400000     kernel32:KERNEL32.dll
 0000:fff05000       .debug$S                   00400000     kernel32:KERNEL32.dll
 0000:fff05000       .debug$S                   00400000     kernel32:KERNEL32.dll
 0000:fff05000       .debug$S                   00400000     kernel32:KERNEL32.dll
 0000:fff05000       .debug$S                   00400000     kernel32:KERNEL32.dll
 0000:fff05000       .debug$S                   00400000     kernel32:KERNEL32.dll
 0000:fff05000       .debug$S                   00400000     kernel32:KERNEL32.dll
 0000:fff05000       .debug$S                   00400000     kernel32:KERNEL32.dll
 0000:fff05000       .debug$S                   00400000     kernel32:KERNEL32.dll
 0000:fff05000       .debug$S                   00400000     kernel32:KERNEL32.dll
 0000:fff05000       .debug$S                   00400000     kernel32:KERNEL32.dll
 0000:fff05000       .debug$S                   00400000     kernel32:KERNEL32.dll
 0000:fff05000       .debug$S                   00400000     kernel32:KERNEL32.dll
 0000:fff05000       .debug$S                   00400000     kernel32:KERNEL32.dll
 0000:fff05000       .debug$S                   00400000     kernel32:KERNEL32.dll
 0000:fff05000       .debug$S                   00400000     kernel32:KERNEL32.dll
 0000:fff05000       .debug$S                   00400000     kernel32:KERNEL32.dll
 0000:fff05000       .debug$S                   00400000     kernel32:KERNEL32.dll
 0000:fff05000       .debug$S                   00400000     kernel32:KERNEL32.dll
 0000:fff05000       .debug$S                   00400000     kernel32:KERNEL32.dll
 0000:fff05000       .debug$S                   00400000     kernel32:KERNEL32.dll
 0000:fff05000       .debug$S                   00400000     kernel32:KERNEL32.dll
 0000:fff05000       .debug$S                   00400000     kernel32:KERNEL32.dll
 0000:fff05000       .debug$S                   00400000     kernel32:KERNEL32.dll
 0000:fff05000       .debug$S                   00400000     kernel32:KERNEL32.dll
 0000:fff05000       .debug$S                   00400000     kernel32:KERNEL32.dll
 0000:fff05000       .debug$S                   00400000     kernel32:KERNEL32.dll
 0000:fff05000       .debug$S                   00400000     kernel32:KERNEL32.dll
 0000:fff05000       .debug$S                   00400000     kernel32:KERNEL32.dll
 0000:fff05000       .debug$S                   00400000     kernel32:KERNEL32.dll
 0000:fff05000       .debug$S                   00400000     kernel32:KERNEL32.dll
 0000:fff05000       .debug$S                   00400000     kernel32:KERNEL32.dll
 0000:fff05000       .debug$S                   00400000     kernel32:KERNEL32.dll
 0000:fff05000       .debug$S                   00400000     kernel32:KERNEL32.dll
 0000:fff05000       .debug$S                   00400000     kernel32:KERNEL32.dll
 0000:fff05000       .debug$S                   00400000     kernel32:KERNEL32.dll
 0000:fff05000       .debug$S                   00400000     kernel32:KERNEL32.dll
 0000:fff05000       .debug$S                   00400000     kernel32:KERNEL32.dll
 0000:fff05000       .debug$S                   00400000     kernel32:KERNEL32.dll
 0000:fff05000       .debug$S                   00400000     user32:USER32.dll
 0000:fff05000       .debug$S                   00400000     user32:USER32.dll
 0000:fff05000       .debug$S                   00400000     user32:USER32.dll
 0000:fff05000       .debug$S                   00400000     user32:USER32.dll
 0000:fff05000       .debug$S                   00400000     user32:USER32.dll
 0000:fff05000       .debug$S                   00400000     user32:USER32.dll
 0000:fff05000       .debug$S                   00400000     user32:USER32.dll
 0000:fff05000       .debug$S                   00400000     user32:USER32.dll
 0000:fff05000       .debug$S                   00400000     user32:USER32.dll
 0000:fff05000       .debug$S                   00400000     user32:USER32.dll
 0000:fff05000       .debug$S                   00400000     user32:USER32.dll
 0000:fff05000       .debug$S                   00400000     user32:USER32.dll
 0000:fff05000       .debug$S                   00400000     user32:USER32.dll
 0000:fff05000       .debug$S                   00400000     user32:USER32.dll
 0000:fff05000       .debug$S                   00400000     user32:USER32.dll
 0000:fff05000       .debug$S                   00400000     user32:USER32.dll
 0000:fff05000       .debug$S                   00400000     user32:USER32.dll
 0000:fff05000       .debug$S                   00400000     user32:USER32.dll
 0000:fff05000       .debug$S                   00400000     user32:USER32.dll
 0000:fff05000       .debug$S                   00400000     user32:USER32.dll
 0000:fff05000       .debug$S                   00400000     user32:USER32.dll
 0000:fff05000       .debug$S                   00400000     user32:USER32.dll
 0000:fff05000       .debug$S                   00400000     user32:USER32.dll
 0000:fff05000       .debug$S                   00400000     user32:USER32.dll
 0000:fff05000       .debug$S                   00400000     user32:USER32.dll
 0000:fff05000       .debug$S                   00400000     user32:USER32.dll
 0000:fff05000       .debug$S                   00400000     user32:USER32.dll
 0000:fff05000       .debug$S                   00400000     user32:USER32.dll
 0000:fff05000       .debug$S                   00400000     ws2_32:WS2_32.dll
 0000:fff05000       .debug$S                   00400000     ws2_32:WS2_32.dll
 0000:fff05000       .debug$S                   00400000     ws2_32:WS2_32.dll
 0000:fff05000       .debug$S                   00400000     ws2_32:WS2_32.dll
 0000:fff05000       .debug$S                   00400000     ws2_32:WS2_32.dll
 0000:fff05000       .debug$S                   00400000     ws2_32:WS2_32.dll
 0000:fff05000       .debug$S                   00400000     ws2_32:WS2_32.dll
 0000:fff05000       .debug$S                   00400000     ws2_32:WS2_32.dll
 0000:fff05000       .debug$S                   00400000     ws2_32:WS2_32.dll
 0000:fff05000       .debug$S                   00400000     ws2_32:WS2_32.dll
 0000:fff05000       .debug$S                   00400000     ws2_32:WS2_32.dll
 0000:fff05000       .debug$S                   00400000     ws2_32:WS2_32.dll
 0000:fff05000       .debug$S                   00400000     ws2_32:WS2_32.dll
 0000:fff05000       .debug$S                   00400000     ws2_32:WS2_32.dll
 0000:fff05000       .debug$S                   00400000     ws2_32:WS2_32.dll
 0000:fff05000       .debug$S                   00400000     ws2_32:WS2_32.dll
 0000:fff05000       .debug$S                   00400000     ws2_32:WS2_32.dll
 0000:fff05000       .debug$S                   00400000     ws2_32:WS2_32.dll
 0000:fff05000       .debug$S                   00400000     ws2_32:WS2_32.dll
 0000:fff05000       .debug$S                   00400000     ws2_32:WS2_32.dll
 0000:fff05000       .debug$S                   00400000     ws2_32:WS2_32.dll
 0000:fff05000       .debug$S                   00400000     ws2_32:WS2_32.dll
 0001:00000000       ??__EgAuthenticate@@YAXXZ  00401000 f   Authenticate.obj
 0001:00000040       ??__EgBlackList@@YAXXZ     00401040 f   BlackList.obj
 0001:00000050       ??__EgClientManager@@YAXXZ 00401050 f   ClientManager.obj
 0001:00000080       ??__EgHidManager@@YAXXZ    00401080 f   HidManager.obj
 0001:00000090       ??__EgIpManager@@YAXXZ     00401090 f   IpManager.obj
 0001:000000c0       ??__EgLog@@YAXXZ           004010c0 f   Log.obj
 0001:000000d0       ??__EgProcessManager@@YAXXZ 004010d0 f   ProcessManager.obj
 0001:00000150       ??__EgReadFiles@@YAXXZ     00401150 f   ReadFiles.obj
 0001:00000160       ??__EgServerDisplayer@@YAXXZ 00401160 f   ServerDisplayer.obj
 0001:000001e0       ??__EgServerInfo@@YAXXZ    004011e0 f   ServerInfo.obj
 0001:000001f0       ??__EgSocketManager@@YAXXZ 004011f0 f   SocketManager.obj
 0001:000005a6       __catch$?SetList@CBlackList@@QAEXPAD@Z$0 004015a6 f   BlackList.obj
 0001:000027a5       __catch$?PlayersList@@YGJPAUHWND__@@IIJ@Z$0 004037a5 f   HackServer.obj
 0001:000027ab       __catch$?PlayersList@@YGJPAUHWND__@@IIJ@Z$2 004037ab f   HackServer.obj
 0001:00002cf8       $LN200                     00403cf8     HackServer.obj
 0001:00002d0c       $LN202                     00403d0c     HackServer.obj
 0001:00002e68       __catch$??$_Copy_nodes@$0A@@?$_Tree@V?$_Tset_traits@V?$basic_string@DU?$char_traits@D@std@@V?$allocator@D@2@@std@@U?$less@V?$basic_string@DU?$char_traits@D@std@@V?$allocator@D@2@@std@@@2@V?$allocator@V?$basic_string@DU?$char_traits@D@std@@V?$allocator@D@2@@std@@@2@$0A@@std@@@std@@IAEPAU?$_Tree_node@V?$basic_string@DU?$char_traits@D@std@@V?$allocator@D@2@@std@@PAX@1@PAU21@0@Z$0 00403e68 f i HackServer.obj
 0001:00002f99       __catch$?CHCProcessInfoRecv@@YAXPAUSHDP_SHOW_PROCESS_SEND@@H@Z$0 00403f99 f   HackServerProtocol.obj
 0001:00003c14       $LN146                     00404c14     HackServerProtocol.obj
 0001:0000554c       $LN121                     0040654c     MemScript.obj
 0001:0000555c       $LN120                     0040655c     MemScript.obj
 0001:000068ef       __catch$?DumpList@CReadFiles@@QAEXPAD@Z$0 004078ef f   ReadFiles.obj
 0001:00006ab2       __catch$?ChecksumList@CReadFiles@@QAEXPAD@Z$0 00407ab2 f   ReadFiles.obj
 0001:00006c58       __catch$?InternalList@CReadFiles@@QAEXPAD@Z$0 00407c58 f   ReadFiles.obj
 0001:00006de0       __catch$?WindowList@CReadFiles@@QAEXPAD@Z$0 00407de0 f   ReadFiles.obj
 0001:0000920c       $LN73                      0040a20c     SocketManager.obj
 0001:00009748       ?find_pe_section@@YAPAU_IMAGE_SECTION_HEADER@@QAEI@Z 0040a748 f   LIBCMT:utility.obj
 0001:00009d8e       ?pre_c_initialization@@YAHXZ 0040ad8e f   LIBCMT:exe_winmain.obj
 0001:00009e39       ?post_pgo_initialization@@YAHXZ 0040ae39 f   LIBCMT:exe_winmain.obj
 0001:00009e41       ?pre_cpp_initialization@@YAXXZ 0040ae41 f   LIBCMT:exe_winmain.obj
 0001:00009e53       ?__scrt_common_main_seh@@YAHXZ 0040ae53 f   LIBCMT:exe_winmain.obj
 0001:0000a3c0       $$000000                   0040b3c0     LIBCMT:sehprolg4.obj
 0001:0000a42a       ___get_entropy             0040b42a f   LIBCMT:gs_support.obj
 0001:0000a4d4       _initialize_environment    0040b4d4 f   libucrt:initialization.obj
 0001:0000a4d4       _initialize_global_state_isolation 0040b4d4 f   libucrt:initialization.obj
 0001:0000a4d4       _report_memory_leaks       0040b4d4 f   libucrt:initialization.obj
 0001:0000a4d4       _uninitialize_c            0040b4d4 f   libucrt:initialization.obj
 0001:0000a4d4       _uninitialize_global_state_isolation 0040b4d4 f   libucrt:initialization.obj
 0001:0000a9e9       ?_FilterSetCurrentException@@YAKPAU_EXCEPTION_POINTERS@@E@Z 0040b9e9 f   libvcruntime:ehhelpers.obj
 0001:0000ab80       $$000000                   0040bb80     libvcruntime:strstr.obj
 0001:0000abc3       strstr_sse_safeloop        0040bbc3     libvcruntime:strstr.obj
 0001:0000abea       strstr_sse_search          0040bbea     libvcruntime:strstr.obj
 0001:0000abea       strstr_sse_unsafe          0040bbea     libvcruntime:strstr.obj
 0001:0000abee       strstr_sse_srchloop        0040bbee     libvcruntime:strstr.obj
 0001:0000ac24       strstr_sse_srchchar        0040bc24     libvcruntime:strstr.obj
 0001:0000ac3b       strstr_sse_cmploop         0040bc3b     libvcruntime:strstr.obj
 0001:0000ac76       strstr_sse_cmpchars        0040bc76     libvcruntime:strstr.obj
 0001:0000ac7d       strstr_sse_cmpunsafe       0040bc7d     libvcruntime:strstr.obj
 0001:0000ac94       strstr_sse_match           0040bc94     libvcruntime:strstr.obj
 0001:0000ac99       strstr_sse_not_found       0040bc99     libvcruntime:strstr.obj
 0001:0000ac9b       strstr_sse_exit            0040bc9b     libvcruntime:strstr.obj
 0001:0000ac9f       strstr_sttni               0040bc9f     libvcruntime:strstr.obj
 0001:0000acbb       strstr_sttni_setchars      0040bcbb     libvcruntime:strstr.obj
 0001:0000acc0       strstr_sttni_setloopchar   0040bcc0     libvcruntime:strstr.obj
 0001:0000acc6       strstr_sttni_setloopnochar 0040bcc6     libvcruntime:strstr.obj
 0001:0000acda       strstr_sttni_srchnext      0040bcda     libvcruntime:strstr.obj
 0001:0000acdd       strstr_sttni_srch          0040bcdd     libvcruntime:strstr.obj
 0001:0000ace1       strstr_sttni_srchloop      0040bce1     libvcruntime:strstr.obj
 0001:0000ad00       strstr_sttni_srchxmm       0040bd00     libvcruntime:strstr.obj
 0001:0000ad13       strstr_sttni_srchcheck     0040bd13     libvcruntime:strstr.obj
 0001:0000ad17       strstr_sttni_cmploop       0040bd17     libvcruntime:strstr.obj
 0001:0000ad4f       strstr_sttni_cmpchar       0040bd4f     libvcruntime:strstr.obj
 0001:0000ad6a       strstr_no_sse              0040bd6a     libvcruntime:strstr.obj
 0001:0000ad7d       findnext                   0040bd7d     libvcruntime:strstr.obj
 0001:0000ad90       loop_start                 0040bd90     libvcruntime:strstr.obj
 0001:0000ad95       in_loop                    0040bd95     libvcruntime:strstr.obj
 0001:0000ad9d       not_found                  0040bd9d     libvcruntime:strstr.obj
 0001:0000ada3       first_char_found           0040bda3     libvcruntime:strstr.obj
 0001:0000adac       two_first_chars_equal      0040bdac     libvcruntime:strstr.obj
 0001:0000adaf       compare_loop               0040bdaf     libvcruntime:strstr.obj
 0001:0000add2       strchr_call                0040bdd2     libvcruntime:strstr.obj
 0001:0000adde       match                      0040bdde     libvcruntime:strstr.obj
 0001:0000ade5       empty_str2                 0040bde5     libvcruntime:strstr.obj
 0001:0000adf0       $$000000                   0040bdf0     libvcruntime:strchr.obj
 0001:0000ae23       strchr_sse_loop            0040be23     libvcruntime:strchr.obj
 0001:0000ae47       strchr_sse_break           0040be47     libvcruntime:strchr.obj
 0001:0000ae58       strchr_no_sse2             0040be58     libvcruntime:strchr.obj
 0001:0000ae70       str_misaligned             0040be70     libvcruntime:strchr.obj
 0001:0000ae85       main_loop_start            0040be85     libvcruntime:strchr.obj
 0001:0000ae90       main_loop                  0040be90     libvcruntime:strchr.obj
 0001:0000aecc       retnull                    0040becc     libvcruntime:strchr.obj
 0001:0000aece       retnull_bx                 0040bece     libvcruntime:strchr.obj
 0001:0000aed2       found_bx                   0040bed2     libvcruntime:strchr.obj
 0001:0000aed7       chr_is_found               0040bed7     libvcruntime:strchr.obj
 0001:0000aeff       byte_3                     0040beff     libvcruntime:strchr.obj
 0001:0000af06       byte_2                     0040bf06     libvcruntime:strchr.obj
 0001:0000af0d       byte_1                     0040bf0d     libvcruntime:strchr.obj
 0001:0000af14       byte_0                     0040bf14     libvcruntime:strchr.obj
 0001:0000afc0       _ValidateLocalCookies      0040bfc0 f   libvcruntime:chandler4.obj
 0001:0000b160       $$000000                   0040c160     libvcruntime:memset.obj
 0001:0000b1a5       XMMMov                     0040c1a5     libvcruntime:memset.obj
 0001:0000b1e0       LargeRangeBytes            0040c1e0     libvcruntime:memset.obj
 0001:0000b21d       XmmMovSmall                0040c21d     libvcruntime:memset.obj
 0001:0000b230       XmmSmallLoop               0040c230     libvcruntime:memset.obj
 0001:0000b235       MidRangeBytes              0040c235     libvcruntime:memset.obj
 0001:0000b251       XMMTrailingBytes           0040c251     libvcruntime:memset.obj
 0001:0000b265       SmallMov                   0040c265     libvcruntime:memset.obj
 0001:0000b26d       ByteLoop                   0040c26d     libvcruntime:memset.obj
 0001:0000b27b       DwordTest                  0040c27b     libvcruntime:memset.obj
 0001:0000b28b       QwordTest                  0040c28b     libvcruntime:memset.obj
 0001:0000b2a0       QwordLoop                  0040c2a0     libvcruntime:memset.obj
 0001:0000b2b3       toend                      0040c2b3     libvcruntime:memset.obj
 0001:0000b400       ??$BuildCatchObjectHelperInternal@V__FrameHandler3@@@@YAHPAUEHExceptionRecord@@PAXPBU_s_HandlerType@@PBU_s_CatchableType@@@Z 0040c400 f   libvcruntime:frame.obj
 0001:0000b53e       ??$BuildCatchObjectInternal@V__FrameHandler3@@@@YAXPAUEHExceptionRecord@@PAXPBU_s_HandlerType@@PBU_s_CatchableType@@@Z 0040c53e f   libvcruntime:frame.obj
 0001:0000b5d7       ??$CatchIt@V__FrameHandler3@@@@YAXPAUEHExceptionRecord@@PAUEHRegistrationNode@@PAU_CONTEXT@@PAXPBU_s_FuncInfo@@PBU_s_HandlerType@@PBU_s_CatchableType@@PBU_s_TryBlockMapEntry@@H1EE@Z 0040c5d7 f   libvcruntime:frame.obj
 0001:0000b657       ??$FindHandler@V__FrameHandler3@@@@YAXPAUEHExceptionRecord@@PAUEHRegistrationNode@@PAU_CONTEXT@@PAXPBU_s_FuncInfo@@EH1@Z 0040c657 f   libvcruntime:frame.obj
 0001:0000b9fc       ??$FindHandlerForForeignException@V__FrameHandler3@@@@YAXPAUEHExceptionRecord@@PAUEHRegistrationNode@@PAU_CONTEXT@@PAXPBU_s_FuncInfo@@HH1@Z 0040c9fc f   libvcruntime:frame.obj
 0001:0000bd1d       ?CallCatchBlock@@YAPAXPAUEHExceptionRecord@@PAUEHRegistrationNode@@PAU_CONTEXT@@PBU_s_FuncInfo@@PAXHK@Z 0040cd1d f   libvcruntime:frame.obj
 0001:0000beec       ?CallUnexpected@@YAXPBU_s_ESTypeList@@@Z 0040ceec f   libvcruntime:frame.obj
 0001:0000bf0c       __catch$?CallUnexpected@@YAXPBU_s_ESTypeList@@@Z$0 0040cf0c f   libvcruntime:frame.obj
 0001:0000bf2b       ?ExFilterRethrow@@YAHPAU_EXCEPTION_POINTERS@@@Z 0040cf2b f   libvcruntime:frame.obj
 0001:0000c075       ?IsInExceptionSpec@@YAEPAUEHExceptionRecord@@PBU_s_ESTypeList@@@Z 0040d075 f   libvcruntime:frame.obj
 0001:0000c140       $$000000                   0040d140     libvcruntime:lowhelpr.obj
 0001:0000c17f       _NLG_Continue              0040d17f     libvcruntime:lowhelpr.obj
 0001:0000c230       $$000000                   0040d230     libvcruntime:exsup4.obj
 0001:0000c262       _lu_top                    0040d262     libvcruntime:exsup4.obj
 0001:0000c2c1       _lu_done                   0040d2c1     libvcruntime:exsup4.obj
 0001:0000c2d0       $$000000                   0040d2d0     libvcruntime:exsup4.obj
 0001:0000c2d0       __unwind_handler4          0040d2d0 f   libvcruntime:exsup4.obj
 0001:0000c320       $$000000                   0040d320     libvcruntime:exsup4.obj
 0001:0000c340       $$000000                   0040d340     libvcruntime:exsup4.obj
 0001:0000c360       $$000000                   0040d360     libvcruntime:exsup4.obj
 0001:0000c375       ReturnPoint                0040d375     libvcruntime:exsup4.obj
 0001:0000c380       $$000000                   0040d380     libvcruntime:exsup4.obj
 0001:0000c397       ?try_get_function@@YAPAXW4function_id@?A0x14174aea@@QBDQBW4module_id@2@2@Z 0040d397 f   libvcruntime:winapi_downlevel.obj
 0001:0000c437       ?try_load_library_from_system_directory@@YAPAUHINSTANCE__@@QB_W@Z 0040d437 f   libvcruntime:winapi_downlevel.obj
 0001:0000c600       $$000000                   0040d600     libvcruntime:memcpy.obj
 0001:0000c600       $$000000                   0040d600     libvcruntime:memmove.obj
 0001:0000c620       CopyUp                     0040d620     libvcruntime:memcpy.obj
 0001:0000c620       CopyUp                     0040d620     libvcruntime:memmove.obj
 0001:0000c644       CopyUpLargeMov             0040d644     libvcruntime:memcpy.obj
 0001:0000c644       CopyUpLargeMov             0040d644     libvcruntime:memmove.obj
 0001:0000c657       CopyUpSSE2Check            0040d657     libvcruntime:memcpy.obj
 0001:0000c657       CopyUpSSE2Check            0040d657     libvcruntime:memmove.obj
 0001:0000c670       AtomChk                    0040d670     libvcruntime:memcpy.obj
 0001:0000c670       AtomChk                    0040d670     libvcruntime:memmove.obj
 0001:0000c696       PalignHead4                0040d696     libvcruntime:memcpy.obj
 0001:0000c696       PalignHead4                0040d696     libvcruntime:memmove.obj
 0001:0000c6a9       PalignHead8                0040d6a9     libvcruntime:memcpy.obj
 0001:0000c6a9       PalignHead8                0040d6a9     libvcruntime:memmove.obj
 0001:0000c6c0       PalignLoop                 0040d6c0     libvcruntime:memcpy.obj
 0001:0000c6c0       PalignLoop                 0040d6c0     libvcruntime:memmove.obj
 0001:0000c6d2       MovPalign12                0040d6d2     libvcruntime:memcpy.obj
 0001:0000c6d2       MovPalign12                0040d6d2     libvcruntime:memmove.obj
 0001:0000c6dc       PalignLoop12               0040d6dc     libvcruntime:memcpy.obj
 0001:0000c6dc       PalignLoop12               0040d6dc     libvcruntime:memmove.obj
 0001:0000c72d       MovPalign8                 0040d72d     libvcruntime:memcpy.obj
 0001:0000c72d       MovPalign8                 0040d72d     libvcruntime:memmove.obj
 0001:0000c738       PalignLoop8                0040d738     libvcruntime:memcpy.obj
 0001:0000c738       PalignLoop8                0040d738     libvcruntime:memmove.obj
 0001:0000c786       MovPalign4                 0040d786     libvcruntime:memcpy.obj
 0001:0000c786       MovPalign4                 0040d786     libvcruntime:memmove.obj
 0001:0000c790       PalignLoop4                0040d790     libvcruntime:memcpy.obj
 0001:0000c790       PalignLoop4                0040d790     libvcruntime:memmove.obj
 0001:0000c7dc       PalignTail                 0040d7dc     libvcruntime:memcpy.obj
 0001:0000c7dc       PalignTail                 0040d7dc     libvcruntime:memmove.obj
 0001:0000c7f4       PalignTail4                0040d7f4     libvcruntime:memcpy.obj
 0001:0000c7f4       PalignTail4                0040d7f4     libvcruntime:memmove.obj
 0001:0000c807       PalignTail8                0040d807     libvcruntime:memcpy.obj
 0001:0000c807       PalignTail8                0040d807     libvcruntime:memmove.obj
 0001:0000c81e       PalignTailLE3              0040d81e     libvcruntime:memcpy.obj
 0001:0000c81e       PalignTailLE3              0040d81e     libvcruntime:memmove.obj
 0001:0000c827       Dword_align                0040d827     libvcruntime:memcpy.obj
 0001:0000c827       Dword_align                0040d827     libvcruntime:memmove.obj
 0001:0000c82f       Dword_up_align_loop        0040d82f     libvcruntime:memcpy.obj
 0001:0000c82f       Dword_up_align_loop        0040d82f     libvcruntime:memmove.obj
 0001:0000c842       Dword_align_Ok             0040d842     libvcruntime:memcpy.obj
 0001:0000c842       Dword_align_Ok             0040d842     libvcruntime:memmove.obj
 0001:0000c85c       ByteCopyUp                 0040d85c     libvcruntime:memcpy.obj
 0001:0000c85c       ByteCopyUp                 0040d85c     libvcruntime:memmove.obj
 0001:0000c864       TrailingUpVec              0040d864     libvcruntime:memcpy.obj
 0001:0000c864       TrailingUpVec              0040d864     libvcruntime:memmove.obj
 0001:0000c874       TrailingUp0                0040d874     libvcruntime:memcpy.obj
 0001:0000c874       TrailingUp0                0040d874     libvcruntime:memmove.obj
 0001:0000c87c       TrailingUp1                0040d87c     libvcruntime:memcpy.obj
 0001:0000c87c       TrailingUp1                0040d87c     libvcruntime:memmove.obj
 0001:0000c888       TrailingUp2                0040d888     libvcruntime:memcpy.obj
 0001:0000c888       TrailingUp2                0040d888     libvcruntime:memmove.obj
 0001:0000c89c       TrailingUp3                0040d89c     libvcruntime:memcpy.obj
 0001:0000c89c       TrailingUp3                0040d89c     libvcruntime:memmove.obj
 0001:0000c8b4       CopyDown                   0040d8b4     libvcruntime:memcpy.obj
 0001:0000c8b4       CopyDown                   0040d8b4     libvcruntime:memmove.obj
 0001:0000c8d9       CopyDownNotAligned         0040d8d9     libvcruntime:memcpy.obj
 0001:0000c8d9       CopyDownNotAligned         0040d8d9     libvcruntime:memmove.obj
 0001:0000c8e0       CopyDownAlignLoop          0040d8e0     libvcruntime:memcpy.obj
 0001:0000c8e0       CopyDownAlignLoop          0040d8e0     libvcruntime:memmove.obj
 0001:0000c8ed       CopyDownAligned            0040d8ed     libvcruntime:memcpy.obj
 0001:0000c8ed       CopyDownAligned            0040d8ed     libvcruntime:memmove.obj
 0001:0000c910       TrailingDownVec            0040d910     libvcruntime:memcpy.obj
 0001:0000c910       TrailingDownVec            0040d910     libvcruntime:memmove.obj
 0001:0000c920       TrailingDown0              0040d920     libvcruntime:memcpy.obj
 0001:0000c920       TrailingDown0              0040d920     libvcruntime:memmove.obj
 0001:0000c928       TrailingDown1              0040d928     libvcruntime:memcpy.obj
 0001:0000c928       TrailingDown1              0040d928     libvcruntime:memmove.obj
 0001:0000c938       TrailingDown2              0040d938     libvcruntime:memcpy.obj
 0001:0000c938       TrailingDown2              0040d938     libvcruntime:memmove.obj
 0001:0000c94c       TrailingDown3              0040d94c     libvcruntime:memcpy.obj
 0001:0000c94c       TrailingDown3              0040d94c     libvcruntime:memmove.obj
 0001:0000c965       XmmMovLargeAlignTest       0040d965     libvcruntime:memcpy.obj
 0001:0000c965       XmmMovLargeAlignTest       0040d965     libvcruntime:memmove.obj
 0001:0000c96d       XmmMovAlignLoop            0040d96d     libvcruntime:memcpy.obj
 0001:0000c96d       XmmMovAlignLoop            0040d96d     libvcruntime:memmove.obj
 0001:0000c97c       XmmMovLargeLoop            0040d97c     libvcruntime:memcpy.obj
 0001:0000c97c       XmmMovLargeLoop            0040d97c     libvcruntime:memmove.obj
 0001:0000c9ec       XmmMovSmallTest            0040d9ec     libvcruntime:memcpy.obj
 0001:0000c9ec       XmmMovSmallTest            0040d9ec     libvcruntime:memmove.obj
 0001:0000c9f1       XmmMovSmallLoop            0040d9f1     libvcruntime:memcpy.obj
 0001:0000c9f1       XmmMovSmallLoop            0040d9f1     libvcruntime:memmove.obj
 0001:0000ca14       CopyDownSmall              0040da14     libvcruntime:memcpy.obj
 0001:0000ca14       CopyDownSmall              0040da14     libvcruntime:memmove.obj
 0001:0000ca1c       CopyDownDwordLoop          0040da1c     libvcruntime:memcpy.obj
 0001:0000ca1c       CopyDownDwordLoop          0040da1c     libvcruntime:memmove.obj
 0001:0000ca31       CopyDownByteTest           0040da31     libvcruntime:memcpy.obj
 0001:0000ca31       CopyDownByteTest           0040da31     libvcruntime:memmove.obj
 0001:0000ca35       CopyDownByteLoop           0040da35     libvcruntime:memcpy.obj
 0001:0000ca35       CopyDownByteLoop           0040da35     libvcruntime:memmove.obj
 0001:0000ca44       CopyDownReturn             0040da44     libvcruntime:memcpy.obj
 0001:0000ca44       CopyDownReturn             0040da44     libvcruntime:memmove.obj
 0001:0000ca50       XmmCopy                    0040da50     libvcruntime:memcpy.obj
 0001:0000ca50       XmmCopy                    0040da50     libvcruntime:memmove.obj
 0001:0000ca5d       XmmCopyAligned             0040da5d     libvcruntime:memcpy.obj
 0001:0000ca5d       XmmCopyAligned             0040da5d     libvcruntime:memmove.obj
 0001:0000ca70       XmmCopyLargeLoop           0040da70     libvcruntime:memcpy.obj
 0001:0000ca70       XmmCopyLargeLoop           0040da70     libvcruntime:memmove.obj
 0001:0000cacd       XmmCopySmallTest           0040dacd     libvcruntime:memcpy.obj
 0001:0000cacd       XmmCopySmallTest           0040dacd     libvcruntime:memmove.obj
 0001:0000cae0       XmmCopySmallLoop           0040dae0     libvcruntime:memcpy.obj
 0001:0000cae0       XmmCopySmallLoop           0040dae0     libvcruntime:memmove.obj
 0001:0000cafb       CopyUpDwordMov             0040dafb     libvcruntime:memcpy.obj
 0001:0000cafb       CopyUpDwordMov             0040dafb     libvcruntime:memmove.obj
 0001:0000cb00       CopyUpDwordTest            0040db00     libvcruntime:memcpy.obj
 0001:0000cb00       CopyUpDwordTest            0040db00     libvcruntime:memmove.obj
 0001:0000cb07       CopyUpDwordLoop            0040db07     libvcruntime:memcpy.obj
 0001:0000cb07       CopyUpDwordLoop            0040db07     libvcruntime:memmove.obj
 0001:0000cb16       CopyUpByteTest             0040db16     libvcruntime:memcpy.obj
 0001:0000cb16       CopyUpByteTest             0040db16     libvcruntime:memmove.obj
 0001:0000cb1d       CopyUpByteLoop             0040db1d     libvcruntime:memcpy.obj
 0001:0000cb1d       CopyUpByteLoop             0040db1d     libvcruntime:memmove.obj
 0001:0000cb30       CopyUpReturn               0040db30     libvcruntime:memcpy.obj
 0001:0000cb30       CopyUpReturn               0040db30     libvcruntime:memmove.obj
 0001:0000cb40       XmmCopyUnaligned           0040db40     libvcruntime:memcpy.obj
 0001:0000cb40       XmmCopyUnaligned           0040db40     libvcruntime:memmove.obj
 0001:0000cb53       XmmAlignByte               0040db53     libvcruntime:memcpy.obj
 0001:0000cb53       XmmAlignByte               0040db53     libvcruntime:memmove.obj
 0001:0000cb5c       XmmAlignDwordTest          0040db5c     libvcruntime:memcpy.obj
 0001:0000cb5c       XmmAlignDwordTest          0040db5c     libvcruntime:memmove.obj
 0001:0000cb61       XmmAlignDwordLoop          0040db61     libvcruntime:memcpy.obj
 0001:0000cb61       XmmAlignDwordLoop          0040db61     libvcruntime:memmove.obj
 0001:0000cb6e       XmmAlignAdjustCnt          0040db6e     libvcruntime:memcpy.obj
 0001:0000cb6e       XmmAlignAdjustCnt          0040db6e     libvcruntime:memmove.obj
 0001:0000cb80       $$000000                   0040db80     libvcruntime:exsup.obj
 0001:0000cb90       $$000000                   0040db90     libvcruntime:exsup.obj
 0001:0000cb9b       __NLG_Go                   0040db9b     libvcruntime:exsup.obj
 0001:0000cbb0       $$000000                   0040dbb0     libvcruntime:exsup.obj
 0001:0000cfa8       ??$common_fsopen@D@@YAPAU_iobuf@@QBD0H@Z 0040dfa8 f   libucrt:fopen.obj
 0001:0000d0b1       ?_fclose_internal@@YAHQAU_iobuf@@AAV__crt_cached_ptd_host@@@Z 0040e0b1 f   libucrt:fclose.obj
 0001:0000d148       ?_fclose_nolock_internal@@YAHQAU_iobuf@@AAV__crt_cached_ptd_host@@@Z 0040e148 f   libucrt:fclose.obj
 0001:0000d4a6       _memcpy_s                  0040e4a6 f   libucrt:atof.obj
 0001:0000d4a6       _memcpy_s                  0040e4a6 f   libucrt:cfout.obj
 0001:0000d4a6       _memcpy_s                  0040e4a6 f   libucrt:mbctype.obj
 0001:0000d4a6       _memcpy_s                  0040e4a6 f   libucrt:fread.obj
 0001:0000e39e       ??$common_vsprintf@Vformat_validation_base@__crt_stdio_output@@D@@YAH_KQADIQBDAAV__crt_cached_ptd_host@@1@Z 0040f39e f   libucrt:output.obj
 0001:0000e512       ??$common_vsprintf@Vstandard_base@__crt_stdio_output@@D@@YAH_KQADIQBDAAV__crt_cached_ptd_host@@1@Z 0040f512 f   libucrt:output.obj
 0001:0000e686       ??$common_vsprintf_s@D@@YAH_KQADIQBDAAV__crt_cached_ptd_host@@1@Z 0040f686 f   libucrt:output.obj
 0001:0000f6d1       $LN139                     004106d1     libucrt:output.obj
 0001:0000f9a5       $LN129                     004109a5     libucrt:output.obj
 0001:0000fee5       $LN18                      00410ee5     libucrt:output.obj
 0001:0000fef9       $LN17                      00410ef9     libucrt:output.obj
 0001:000103c0       ??$common_tcsncpy_s@D@@YAHQADIQBDI@Z 004113c0 f   libucrt:strncpy_s.obj
 0001:00010767       ??$common_atof_l@D@@YANQBDQAU__crt_locale_pointers@@@Z 00411767 f   libucrt:atof.obj
 0001:0001103a       $LN32                      0041203a     libucrt:atof.obj
 0001:0001115e       $LN30                      0041215e     libucrt:atof.obj
 0001:00013a62       ??$common_vsscanf@D@@YAH_KQBDI1QAU__crt_locale_pointers@@QAD@Z 00414a62 f   libucrt:input.obj
 0001:00014e72       $LN15                      00415e72     libucrt:input.obj
 0001:000155ba       $LN17                      004165ba     libucrt:input.obj
 0001:000155ce       $LN16                      004165ce     libucrt:input.obj
 0001:0001579d       ??$?RV<lambda_76055cf4b68c1f980da8b7496a3ae623>@@AAV<lambda_26974eb511f701c600fccfa2a97a8e1b>@@V<lambda_0062726809bb3c529c0733aa37379daf>@@@?$__crt_seh_guarded_call@I@@QAEI$$QAV<lambda_76055cf4b68c1f980da8b7496a3ae623>@@AAV<lambda_26974eb511f701c600fccfa2a97a8e1b>@@$$QAV<lambda_0062726809bb3c529c0733aa37379daf>@@@Z 0041679d f   libucrt:fwrite.obj
 0001:000157f8       ??R<lambda_26974eb511f701c600fccfa2a97a8e1b>@@QBEIXZ 004167f8 f   libucrt:fwrite.obj
 0001:00015e13       ??$common_localtime_s@_J@@YAHQAUtm@@QB_J@Z 00416e13 f   libucrt:localtime.obj
 0001:000160ef       ??$common_asctime_s@D@@YAHQADIQBUtm@@@Z 004170ef f   libucrt:asctime.obj
 0001:00016242       ??$common_asctime_s_write_value@D@@YAPADPADH_N@Z 00417242 f   libucrt:asctime.obj
 0001:0001640f       ??$?RV<lambda_03b1d95aef87969028cfba75ccab2455>@@AAV<lambda_6e4b09c48022b2350581041d5f6b0c4c>@@V<lambda_22bdf7517842c4b3e53723af5aa32b9e>@@@?$__crt_seh_guarded_call@X@@QAEX$$QAV<lambda_03b1d95aef87969028cfba75ccab2455>@@AAV<lambda_6e4b09c48022b2350581041d5f6b0c4c>@@$$QAV<lambda_22bdf7517842c4b3e53723af5aa32b9e>@@@Z 0041740f f   libucrt:exit.obj
 0001:0001647b       ??R<lambda_6e4b09c48022b2350581041d5f6b0c4c>@@QBE@XZ 0041747b f   libucrt:exit.obj
 0001:00016566       ?common_exit@@YAXHW4_crt_exit_cleanup_mode@@W4_crt_exit_return_mode@@@Z 00417566 f   libucrt:exit.obj
 0001:000165fd       ?exit_or_terminate_process@@YAXI@Z 004175fd f   libucrt:exit.obj
 0001:0001662e       ?is_managed_app@@YA_NXZ    0041762e f   libucrt:exit.obj
 0001:00016671       ?should_call_terminate_process@@YA_NXZ 00417671 f   libucrt:exit.obj
 0001:00016693       ?try_cor_exit_process@@YAXI@Z 00417693 f   libucrt:exit.obj
 0001:00016794       ??$common_configure_argv@D@@YAHW4_crt_argv_mode@@@Z 00417794 f   libucrt:argv_parsing.obj
 0001:000168d1       ??$parse_command_line@D@@YAXPADPAPAD0PAI2@Z 004178d1 f   libucrt:argv_parsing.obj
 0001:00016a9f       ??$common_get_or_create_environment_nolock@_W@@YAPAPA_WXZ 00417a9f f   libucrt:environment_initialization.obj
 0001:00016acb       ??$common_initialize_environment_nolock@D@@YAHXZ 00417acb f   libucrt:environment_initialization.obj
 0001:00016b25       ??$common_initialize_environment_nolock@_W@@YAHXZ 00417b25 f   libucrt:environment_initialization.obj
 0001:00016b7a       ??$create_environment@D@@YAQAPADQAD@Z 00417b7a f   libucrt:environment_initialization.obj
 0001:00016c5c       ??$create_environment@_W@@YAQAPA_WQA_W@Z 00417c5c f   libucrt:environment_initialization.obj
 0001:00016d7a       ??$free_environment@D@@YAXQAPAD@Z 00417d7a f   libucrt:environment_initialization.obj
 0001:00016d7a       ??$free_environment@_W@@YAXQAPA_W@Z 00417d7a f   libucrt:environment_initialization.obj
 0001:00016da9       ??$initialize_environment_by_cloning_nolock@_W@@YAHXZ 00417da9 f   libucrt:environment_initialization.obj
 0001:00016e2a       ??$uninitialize_environment_internal@D@@YAXAAPAPAD@Z 00417e2a f   libucrt:environment_initialization.obj
 0001:00016e45       ??$uninitialize_environment_internal@_W@@YAXAAPAPA_W@Z 00417e45 f   libucrt:environment_initialization.obj
 0001:00016ebb       ??$?RV<lambda_69a2805e680e0e292e8ba93315fe43a8>@@AAV<lambda_f03950bc5685219e0bcd2087efbe011e>@@V<lambda_03fcd07e894ec930e3f35da366ca99d6>@@@?$__crt_seh_guarded_call@H@@QAEH$$QAV<lambda_69a2805e680e0e292e8ba93315fe43a8>@@AAV<lambda_f03950bc5685219e0bcd2087efbe011e>@@$$QAV<lambda_03fcd07e894ec930e3f35da366ca99d6>@@@Z 00417ebb f   libucrt:onexit.obj
 0001:00016f16       ??$?RV<lambda_8e746cf0007f6ed984d6f78af1fec997>@@AAV<lambda_22ebabd17bc4fa466a2aca6d8deb888d>@@V<lambda_18ed0c0b38a6dc0daf1e7ac6d6adf05e>@@@?$__crt_seh_guarded_call@H@@QAEH$$QAV<lambda_8e746cf0007f6ed984d6f78af1fec997>@@AAV<lambda_22ebabd17bc4fa466a2aca6d8deb888d>@@$$QAV<lambda_18ed0c0b38a6dc0daf1e7ac6d6adf05e>@@@Z 00417f16 f   libucrt:onexit.obj
 0001:00016f71       ??R<lambda_22ebabd17bc4fa466a2aca6d8deb888d>@@QBEHXZ 00417f71 f   libucrt:onexit.obj
 0001:00017073       ??R<lambda_f03950bc5685219e0bcd2087efbe011e>@@QBEHXZ 00418073 f   libucrt:onexit.obj
 0001:000171fd       _uninitialize_allocated_io_buffers 004181fd f   libucrt:initialization.obj
 0001:0001724d       _initialize_global_variables 0041824d f   libucrt:initialization.obj
 0001:0001725a       _initialize_c              0041825a f   libucrt:initialization.obj
 0001:00017274       _uninitialize_environment  00418274 f   libucrt:initialization.obj
 0001:0001727c       _initialize_pointers       0041827c f   libucrt:initialization.obj
 0001:000172aa       _uninitialize_vcruntime    004182aa f   libucrt:initialization.obj
 0001:000172b3       _uninitialize_allocated_memory 004182b3 f   libucrt:initialization.obj
 0001:000172ca       ??R<lambda_af42a3ee9806e9a7305d451646e05244>@@QBEXAAPAU__crt_multibyte_data@@@Z 004182ca f   libucrt:initialization.obj
 0001:00017676       ??$?RV<lambda_e5124f882df8998aaf41531e079ba474>@@AAV<lambda_3e16ef9562a7dcce91392c22ab16ea36>@@V<lambda_e25ca0880e6ef98be67edffd8c599615>@@@?$__crt_seh_guarded_call@X@@QAEX$$QAV<lambda_e5124f882df8998aaf41531e079ba474>@@AAV<lambda_3e16ef9562a7dcce91392c22ab16ea36>@@$$QAV<lambda_e25ca0880e6ef98be67edffd8c599615>@@@Z 00418676 f   libucrt:wsetlocale.obj
 0001:00017870       $$000000                   00418870     libucrt:strncmp.obj
 0001:00017922       ??$?RV<lambda_15ade71b0218206bbe3333a0c9b79046>@@AAV<lambda_da44e0f8b0f19ba52fefafb335991732>@@V<lambda_207f2d024fc103971653565357d6cd41>@@@?$__crt_seh_guarded_call@X@@QAEX$$QAV<lambda_15ade71b0218206bbe3333a0c9b79046>@@AAV<lambda_da44e0f8b0f19ba52fefafb335991732>@@$$QAV<lambda_207f2d024fc103971653565357d6cd41>@@@Z 00418922 f   libucrt:per_thread_data.obj
 0001:00017974       ??$?RV<lambda_38edbb1296d33220d7e4dd0ed76b244a>@@AAV<lambda_5ce1d447e08cb34b2473517608e21441>@@V<lambda_fb385d3da700c9147fc39e65dd577a8c>@@@?$__crt_seh_guarded_call@X@@QAEX$$QAV<lambda_38edbb1296d33220d7e4dd0ed76b244a>@@AAV<lambda_5ce1d447e08cb34b2473517608e21441>@@$$QAV<lambda_fb385d3da700c9147fc39e65dd577a8c>@@@Z 00418974 f   libucrt:per_thread_data.obj
 0001:000179df       ??$?RV<lambda_6affb1475c98b40b75cdec977db92e3c>@@AAV<lambda_b8d4b9c228a6ecc3f80208dbb4b4a104>@@V<lambda_608742c3c92a14382c1684fc64f96c88>@@@?$__crt_seh_guarded_call@X@@QAEX$$QAV<lambda_6affb1475c98b40b75cdec977db92e3c>@@AAV<lambda_b8d4b9c228a6ecc3f80208dbb4b4a104>@@$$QAV<lambda_608742c3c92a14382c1684fc64f96c88>@@@Z 004189df f   libucrt:per_thread_data.obj
 0001:00017a34       ??$?RV<lambda_a7e850c220f1c8d1e6efeecdedd162c6>@@AAV<lambda_46720907175c18b6c9d2717bc0d2d362>@@V<lambda_9048902d66e8d99359bc9897bbb930a8>@@@?$__crt_seh_guarded_call@X@@QAEX$$QAV<lambda_a7e850c220f1c8d1e6efeecdedd162c6>@@AAV<lambda_46720907175c18b6c9d2717bc0d2d362>@@$$QAV<lambda_9048902d66e8d99359bc9897bbb930a8>@@@Z 00418a34 f   libucrt:per_thread_data.obj
 0001:00017a8e       ?construct_ptd@@YAXQAU__acrt_ptd@@QAPAU__crt_locale_data@@@Z 00418a8e f   libucrt:per_thread_data.obj
 0001:00017b27       ?destroy_fls@@YGXPAX@Z     00418b27 f   libucrt:per_thread_data.obj
 0001:00017b48       ?destroy_ptd@@YAXQAU__acrt_ptd@@@Z 00418b48 f   libucrt:per_thread_data.obj
 0001:00017c15       ?replace_current_thread_locale_nolock@@YAXQAU__acrt_ptd@@QAU__crt_locale_data@@@Z 00418c15 f   libucrt:per_thread_data.obj
 0001:000181eb       ?find_or_allocate_unused_stream_nolock@@YA?AV__crt_stdio_stream@@XZ 004191eb f   libucrt:stream.obj
 0001:000184d7       ??$common_openfile@D@@YAPAU_iobuf@@QBD0HV__crt_stdio_stream@@@Z 004194d7 f   libucrt:openfile.obj
 0001:00018728       ??$?RV<lambda_d422a76eb4c3bf3ad751449ab71a6ea4>@@AAV<lambda_c9ba49e555ba839a7b07aa3fbecb7617>@@V<lambda_9476263c8ee91a25d21c55370bdb50de>@@@?$__crt_seh_guarded_call@H@@QAEH$$QAV<lambda_d422a76eb4c3bf3ad751449ab71a6ea4>@@AAV<lambda_c9ba49e555ba839a7b07aa3fbecb7617>@@$$QAV<lambda_9476263c8ee91a25d21c55370bdb50de>@@@Z 00419728 f   libucrt:close.obj
 0001:0001896c       ??$?RV<lambda_2866be3712abc81a800a822484c830d8>@@AAV<lambda_39ca0ed439415581b5b15c265174cece>@@V<lambda_2b24c74d71094a6cd0cb82e44167d71b>@@@?$__crt_seh_guarded_call@X@@QAEX$$QAV<lambda_2866be3712abc81a800a822484c830d8>@@AAV<lambda_39ca0ed439415581b5b15c265174cece>@@$$QAV<lambda_2b24c74d71094a6cd0cb82e44167d71b>@@@Z 0041996c f   libucrt:fflush.obj
 0001:000189f8       ??$?RV<lambda_2cc53f568c5a2bb6f192f930a45d44ea>@@AAV<lambda_ab61a845afdef5b7c387490eaf3616ee>@@V<lambda_c2ffc0b7726aa6be21d5f0026187e748>@@@?$__crt_seh_guarded_call@X@@QAEX$$QAV<lambda_2cc53f568c5a2bb6f192f930a45d44ea>@@AAV<lambda_ab61a845afdef5b7c387490eaf3616ee>@@$$QAV<lambda_c2ffc0b7726aa6be21d5f0026187e748>@@@Z 004199f8 f   libucrt:fflush.obj
 0001:00018aa4       ?common_flush_all@@YAH_N@Z 00419aa4 f   libucrt:fflush.obj
 0001:00018af1       ?common_flush_all_should_try_to_flush_stream@@YA_NV__crt_stdio_stream@@QAH@Z 00419af1 f   libucrt:fflush.obj
 0001:00018b24       ?is_stream_flushable_or_commitable@@YA_NJ@Z 00419b24 f   libucrt:fflush.obj
 0001:00018c20       ??$translate_text_mode_nolock@D@@YAHHQADI@Z 00419c20 f   libucrt:read.obj
 0001:00018d6c       ??$translate_text_mode_nolock@_W@@YAHHQA_WI@Z 00419d6c f   libucrt:read.obj
 0001:00018f14       ?translate_ansi_or_utf8_nolock@@YAHHQADIQA_WI@Z 00419f14 f   libucrt:read.obj
 0001:0001906b       ?translate_utf16_from_console_nolock@@YAHHQA_WI@Z 0041a06b f   libucrt:read.obj
 0001:00019599       ??$common_refill_and_read_nolock@D@@YAHV__crt_stdio_stream@@@Z 0041a599 f   libucrt:_filbuf.obj
 0001:00019c7b       ?fe_to_nearest@@YA_NQBN_KF@Z 0041ac7b f   libucrt:cvt.obj
 0001:00019d1e       ?fp_format_a@@YAHQBNPADIQADIH_NIW4__acrt_rounding_mode@@AAV__crt_cached_ptd_host@@@Z 0041ad1e f   libucrt:cvt.obj
 0001:0001a04a       ?fp_format_e@@YAHQBNQADI1IH_NIW4__acrt_rounding_mode@@AAV__crt_cached_ptd_host@@@Z 0041b04a f   libucrt:cvt.obj
 0001:0001a0ee       ?fp_format_e_internal@@YAHQADIH_NIQAU_strflt@@1AAV__crt_cached_ptd_host@@@Z 0041b0ee f   libucrt:cvt.obj
 0001:0001a233       ?fp_format_f@@YAHQBNQADI1IHW4__acrt_rounding_mode@@AAV__crt_cached_ptd_host@@@Z 0041b233 f   libucrt:cvt.obj
 0001:0001a2c9       ?fp_format_f_internal@@YAHQADIHQAU_strflt@@_NAAV__crt_cached_ptd_host@@@Z 0041b2c9 f   libucrt:cvt.obj
 0001:0001a3b7       ?fp_format_g@@YAHQBNQADI1IH_NIW4__acrt_rounding_mode@@AAV__crt_cached_ptd_host@@@Z 0041b3b7 f   libucrt:cvt.obj
 0001:0001a486       ?fp_format_nan_or_infinity@@YAHW4__acrt_fp_class@@_NPADI1@Z 0041b486 f   libucrt:cvt.obj
 0001:0001a51b       ?shift_bytes@@YAXQADI0H@Z  0041b51b f   libucrt:cvt.obj
 0001:0001a54f       ?should_round_up@@YA_NQBN_KFW4__acrt_rounding_mode@@@Z 0041b54f f   libucrt:cvt.obj
 0001:0001ab72       ?initialize_inherited_file_handles_nolock@@YAXXZ 0041bb72 f   libucrt:ioinit.obj
 0001:0001ac28       ?initialize_stdio_handles_nolock@@YAXXZ 0041bc28 f   libucrt:ioinit.obj
 0001:0001adce       ?write_double_translated_ansi_nolock@@YA?AUwrite_result@?A0x17268360@@HQBDIAAV__crt_cached_ptd_host@@@Z 0041bdce f   libucrt:write.obj
 0001:0001b1a0       ?write_double_translated_unicode_nolock@@YA?AUwrite_result@?A0x17268360@@QBDI@Z 0041c1a0 f   libucrt:write.obj
 0001:0001b208       ?write_requires_double_translation_nolock@@YA_NHAAV__crt_cached_ptd_host@@@Z 0041c208 f   libucrt:write.obj
 0001:0001b286       ?write_text_ansi_nolock@@YA?AUwrite_result@?A0x17268360@@HQBDI@Z 0041c286 f   libucrt:write.obj
 0001:0001b361       ?write_text_utf16le_nolock@@YA?AUwrite_result@?A0x17268360@@HQBDI@Z 0041c361 f   libucrt:write.obj
 0001:0001b44a       ?write_text_utf8_nolock@@YA?AUwrite_result@?A0x17268360@@HQBDI@Z 0041c44a f   libucrt:write.obj
 0001:0001b8bb       ??$common_flush_and_write_nolock@D@@YAHHV__crt_stdio_stream@@AAV__crt_cached_ptd_host@@@Z 0041c8bb f   libucrt:_flsbuf.obj
 0001:0001b9b1       ??$write_buffer_nolock@D@@YA_NDV__crt_stdio_stream@@AAV__crt_cached_ptd_host@@@Z 0041c9b1 f   libucrt:_flsbuf.obj
 0001:0001ba83       ?stream_is_at_end_of_file_nolock@@YA_NV__crt_stdio_stream@@@Z 0041ca83 f   libucrt:_flsbuf.obj
 0001:0001bb8f       ?try_get_AreFileApisANSI@@YAP6GHXZXZ 0041cb8f f   libucrt:winapi_thunks.obj
 0001:0001bba9       ?try_get_CompareStringEx@@YAP6GHPB_WK0H0HPAU_nlsversioninfo@@PAXJ@ZXZ 0041cba9 f   libucrt:winapi_thunks.obj
 0001:0001bbc3       ?try_get_LCMapStringEx@@YAP6GHPB_WK0HPA_WHPAU_nlsversioninfo@@PAXJ@ZXZ 0041cbc3 f   libucrt:winapi_thunks.obj
 0001:0001bbdd       ?try_get_LocaleNameToLCID@@YAP6GKPB_WK@ZXZ 0041cbdd f   libucrt:winapi_thunks.obj
 0001:0001bbf7       ?try_get_first_available_module@@YAPAUHINSTANCE__@@QBW4module_id@?A0x391cf84c@@0@Z 0041cbf7 f   libucrt:winapi_thunks.obj
 0001:0001bcc2       ?try_get_function@@YAPAXW4function_id@?A0x391cf84c@@QBDQBW4module_id@2@2@Z 0041ccc2 f   libucrt:winapi_thunks.obj
 0001:0001c161       ??$common_gmtime_s@_J@@YAHQAUtm@@QB_J@Z 0041d161 f   libucrt:gmtime.obj
 0001:0001c2ab       ?compute_year@@YAHAA_JAA_N@Z 0041d2ab f   libucrt:gmtime.obj
 0001:0001c36f       ?_isindst_nolock@@YAHQAUtm@@@Z 0041d36f f   libucrt:tzset.obj
 0001:0001c589       ?cvtdate@@YAXW4transition_type@?A0x7639d0b4@@W4date_type@2@HHHHHHHHH@Z 0041d589 f   libucrt:tzset.obj
 0001:0001c6c9       ?get_tz_environment_variable@@YAPA_WAAY0BAA@_W@Z 0041d6c9 f   libucrt:tzset.obj
 0001:0001c740       ?tzset_env_copy_to_tzname@@YAXQB_WQA_WQADI@Z 0041d740 f   libucrt:tzset.obj
 0001:0001c787       ?tzset_from_environment_nolock@@YAXPA_W@Z 0041d787 f   libucrt:tzset.obj
 0001:0001ca19       ?tzset_from_system_nolock@@YAXXZ 0041da19 f   libucrt:tzset.obj
 0001:0001cb73       ?tzset_nolock@@YAXXZ       0041db73 f   libucrt:tzset.obj
 0001:0001cbe9       ?tzset_os_copy_to_tzname@@YAXQB_WQA_WQADI@Z 0041dbe9 f   libucrt:tzset.obj
 0001:0001cdad       ?<lambda_invoker_cdecl>@<lambda_838c7f62c73c983481e27c09e84b0b5d>@@CAHPBX0@Z 0041ddad f   libucrt:argv_wildcards.obj
 0001:0001ce8b       ??$common_expand_argv_wildcards@D@@YAHQAPADQAPAPAD@Z 0041de8b f   libucrt:argv_wildcards.obj
 0001:0001d008       ??$copy_and_add_argument_to_buffer@D@@YAHQBD0IAAV?$argument_list@D@?A0x5f5c8891@@@Z 0041e008 f   libucrt:argv_wildcards.obj
 0001:0001d0b9       ??$expand_argument_wildcards@D@@YAHQAD0AAV?$argument_list@D@?A0x5f5c8891@@@Z 0041e0b9 f   libucrt:argv_wildcards.obj
 0001:0001d33e       ??1?$argument_list@D@?A0x5f5c8891@@QAE@XZ 0041e33e f   libucrt:argv_wildcards.obj
 0001:0001d3c7       ?expand_if_necessary@?$argument_list@D@?A0x5f5c8891@@AAEHXZ 0041e3c7 f   libucrt:argv_wildcards.obj
 0001:0001d5f7       ??$?RV<lambda_ceb1ee4838e85a9d631eb091e2fbe199>@@AAV<lambda_ae742caa10f662c28703da3d2ea5e57e>@@V<lambda_cd08b5d6af4937fe54fc07d0c9bf6b37>@@@?$__crt_seh_guarded_call@X@@QAEX$$QAV<lambda_ceb1ee4838e85a9d631eb091e2fbe199>@@AAV<lambda_ae742caa10f662c28703da3d2ea5e57e>@@$$QAV<lambda_cd08b5d6af4937fe54fc07d0c9bf6b37>@@@Z 0041e5f7 f   libucrt:mbctype.obj
 0001:0001d644       ??R<lambda_ae742caa10f662c28703da3d2ea5e57e>@@QBEXXZ 0041e644 f   libucrt:mbctype.obj
 0001:0001d6c7       ?CPtoLocaleName@@YAPB_WH@Z 0041e6c7 f   libucrt:mbctype.obj
 0001:0001d705       ?getSystemCP@@YAHH@Z       0041e705 f   libucrt:mbctype.obj
 0001:0001d776       ?setSBCS@@YAXPAU__crt_multibyte_data@@@Z 0041e776 f   libucrt:mbctype.obj
 0001:0001d7d9       ?setSBUpLow@@YAXPAU__crt_multibyte_data@@@Z 0041e7d9 f   libucrt:mbctype.obj
 0001:0001d985       ?setmbcp_internal@@YAHH_NQAU__acrt_ptd@@QAPAU__crt_multibyte_data@@@Z 0041e985 f   libucrt:mbctype.obj
 0001:0001dada       ?update_thread_multibyte_data_internal@@YAPAU__crt_multibyte_data@@QAU__acrt_ptd@@QAPAU1@@Z 0041eada f   libucrt:mbctype.obj
 0001:0001dddd       ?x_ismbbtype_l@@YAHPAU__crt_locale_pointers@@IHH@Z 0041eddd f   libucrt:ismbbyte.obj
 0001:0001df79       ?find_end_of_double_null_terminated_sequence@@YAPB_WQB_W@Z 0041ef79 f   libucrt:get_environment_from_os.obj
 0001:0001e09e       ??$common_set_variable_in_environment_nolock@_W@@YAHQA_WH@Z 0041f09e f   libucrt:setenv.obj
 0001:0001e31d       ??$copy_environment@_W@@YAPAPA_WQAPA_W@Z 0041f31d f   libucrt:setenv.obj
 0001:0001e3db       ??$ensure_current_environment_is_not_initial_environment_nolock@_W@@YAXXZ 0041f3db f   libucrt:setenv.obj
 0001:0001e3f5       ??$find_in_environment_nolock@_W@@YAHQB_WI@Z 0041f3f5 f   libucrt:setenv.obj
 0001:0001e579       ??$?RV<lambda_cbab9ec6f41b0180b23cc171c22676b0>@@AAV<lambda_44731a7d0e6d81c3e6aa82d741081786>@@V<lambda_4b292cb8dd18144e164572427af410ab>@@@?$__crt_seh_guarded_call@P6AXH@Z@@QAEP6AXH@Z$$QAV<lambda_cbab9ec6f41b0180b23cc171c22676b0>@@AAV<lambda_44731a7d0e6d81c3e6aa82d741081786>@@$$QAV<lambda_4b292cb8dd18144e164572427af410ab>@@@Z 0041f579 f   libucrt:signal.obj
 0001:0001e5dd       ?get_global_action_nolock@@YAPAP6AXH@ZH@Z 0041f5dd f   libucrt:signal.obj
 0001:0001e61f       ?siglookup@@YAPAU__crt_signal_action_t@@HQAU1@@Z 0041f61f f   libucrt:signal.obj
 0001:0001e87f       ??$common_tcsncpy_s@_W@@YAHQA_WIQB_WI@Z 0041f87f f   libucrt:wcsncpy_s.obj
 0001:0001ef2e       ?free_crt_array_internal@@YAXQAPBXI@Z 0041ff2e f   libucrt:inittime.obj
 0001:0001f4fa       ___hw_cw_sse2              004204fa f   libucrt:ieee87.obj
 0001:0001f980       __hw_cw                    00420980 f   libucrt:ieee87.obj
 0001:0001fc50       ??$common_sopen_dispatch@D@@YAHQBDHHHQAHH@Z 00420c50 f   libucrt:open.obj
 0001:0001fd11       ?configure_text_mode@@YAHHUfile_options@?A0xa9d50aae@@HAAW4__crt_lowio_text_mode@@@Z 00420d11 f   libucrt:open.obj
 0001:0001ff5f       ?create_file@@YAPAXQB_WQAU_SECURITY_ATTRIBUTES@@Ufile_options@?A0xa9d50aae@@@Z 00420f5f f   libucrt:open.obj
 0001:0001ff84       ?decode_open_create_flags@@YAKH@Z 00420f84 f   libucrt:open.obj
 0001:0001fff4       ?decode_options@@YA?AUfile_options@?A0xa9d50aae@@HHH@Z 00420ff4 f   libucrt:open.obj
 0001:0002016e       ?truncate_ctrl_z_if_present@@YAHH@Z 0042116e f   libucrt:open.obj
 0001:000205d0       ??$?RV<lambda_9e9de3de5fa147e2223d7db92bc10aa6>@@AAV<lambda_38ce7e780aa69e748d6df282ebc68efe>@@V<lambda_8ca6da459f0f6780f1cff60fdc3d00e5>@@@?$__crt_seh_guarded_call@H@@QAEH$$QAV<lambda_9e9de3de5fa147e2223d7db92bc10aa6>@@AAV<lambda_38ce7e780aa69e748d6df282ebc68efe>@@$$QAV<lambda_8ca6da459f0f6780f1cff60fdc3d00e5>@@@Z 004215d0 f   libucrt:commit.obj
 0001:00020745       ??$common_lseek@_J@@YA_JH_JHAAV__crt_cached_ptd_host@@@Z 00421745 f   libucrt:lseek.obj
 0001:0002086b       ??$common_lseek_nolock@_J@@YA_JH_JHAAV__crt_cached_ptd_host@@@Z 0042186b f   libucrt:lseek.obj
 0001:00020a01       ?should_round_up@@YA_NQBD0HW4__acrt_has_trailing_digits@@W4__acrt_rounding_mode@@@Z 00421a01 f   libucrt:_fptostr.obj
 0001:00022162       ??R<lambda_e96123212306c92459f955e8e4eac55d>@@QBEIPBD@Z 00423162 f   libucrt:mbrtowc.obj
 0001:000222d9       ?to_abstract_control@@YA?AW4__acrt_fenv_abstract_control@@W4__acrt_fenv_machine_sse_control@@@Z 004232d9 f   libucrt:_fenvutils.obj
 0001:00022389       ?to_abstract_control@@YA?AW4__acrt_fenv_abstract_control@@W4__acrt_fenv_machine_x87_control@@@Z 00423389 f   libucrt:_fenvutils.obj
 0001:00022436       ?to_machine_sse_control@@YA?AW4__acrt_fenv_machine_sse_control@@W4__acrt_fenv_abstract_control@@@Z 00423436 f   libucrt:_fenvutils.obj
 0001:000224ec       ?to_machine_x87_control@@YA?AW4__acrt_fenv_machine_x87_control@@W4__acrt_fenv_abstract_control@@@Z 004234ec f   libucrt:_fenvutils.obj
 0001:00022895       ?GetTableIndexFromLocaleName@@YAHPB_W@Z 00423895 f   libucrt:lcidtoname_downlevel.obj
 0001:00022911       ??$common_getenv_nolock@_W@@YAPA_WQB_W@Z 00423911 f   libucrt:getenv.obj
 0001:00022995       ??$common_getenv_s@_W@@YAHQAIQA_WIQB_W@Z 00423995 f   libucrt:getenv.obj
 0001:000229f4       ??$common_getenv_s_nolock@_W@@YAHQAIQA_WIQB_W@Z 004239f4 f   libucrt:getenv.obj
 0001:00022fb0       $$000000                   00423fb0     libucrt:strpbrk.obj
 0001:00023094       ?__acrt_LCMapStringA_stat@@YAHPAU__crt_locale_pointers@@PB_WKPBDHPADHHH@Z 00424094 f   libucrt:lcmapstringa.obj
 0001:000232cb       ?initialize_multibyte@@YAHXZ 004242cb f   libucrt:multibyte_initializer.obj
 0001:000235d0       $$000000                   004245d0     libucrt:_strnicm.obj
 0001:00023910       $$000000                   00424910     libucrt:log10_impl.obj
 0001:00023a20       $$000000                   00424a20     libucrt:ceil_pentium4.obj
 0001:00023d31       ?__dcrt_lowio_initialize_console_output@@YAXXZ 00424d31 f   libucrt:initcon.obj
 0001:00023e70       $$000000                   00424e70     libucrt:log10_pentium4.obj
 0001:00024100       $$000000                   00425100     libucrt:87tran.obj
 0001:00024310       $$000000                   00425310     libucrt:87disp.obj
 0001:00024570       $$000000                   00425570     libucrt:common.obj
 0001:00024700       $$000000                   00425700     libucrt:genexcep.obj
 0001:000257e0       $$000000                   004267e0     LIBCMT:ulldiv.obj
 0001:00025802       L1                         00426802     LIBCMT:ulldiv.obj
 0001:00025810       L3                         00426810     LIBCMT:ulldiv.obj
 0001:0002583e       L4                         0042683e     LIBCMT:ulldiv.obj
 0001:0002583f       L5                         0042683f     LIBCMT:ulldiv.obj
 0001:00025843       L2                         00426843     LIBCMT:ulldiv.obj
 0001:00025850       $$000000                   00426850     LIBCMT:llmul.obj
 0001:00025869       hard                       00426869     LIBCMT:llmul.obj
 0001:00025890       $$000000                   00426890     LIBCMT:ulldvrm.obj
 0001:000258c1       L1                         004268c1     LIBCMT:ulldvrm.obj
 0001:000258cf       L3                         004268cf     LIBCMT:ulldvrm.obj
 0001:000258fd       L4                         004268fd     LIBCMT:ulldvrm.obj
 0001:00025906       L5                         00426906     LIBCMT:ulldvrm.obj
 0001:00025908       L2                         00426908     LIBCMT:ulldvrm.obj
 0001:00025930       $$000000                   00426930     LIBCMT:llshl.obj
 0001:00025940       MORE32                     00426940     LIBCMT:llshl.obj
 0001:0002594a       RETZERO                    0042694a     LIBCMT:llshl.obj
 0001:00025950       $$000000                   00426950     LIBCMT:ullshr.obj
 0001:00025960       MORE32                     00426960     LIBCMT:ullshr.obj
 0001:0002596a       RETZERO                    0042696a     LIBCMT:ullshr.obj
 0001:00025970       $$000000                   00426970     LIBCMT:lldiv.obj
 0001:00025991       L1                         00426991     LIBCMT:lldiv.obj
 0001:000259ad       L2                         004269ad     LIBCMT:lldiv.obj
 0001:000259c9       L3                         004269c9     LIBCMT:lldiv.obj
 0001:000259d7       L5                         004269d7     LIBCMT:lldiv.obj
 0001:00025a05       L6                         00426a05     LIBCMT:lldiv.obj
 0001:00025a06       L7                         00426a06     LIBCMT:lldiv.obj
 0001:00025a0a       L4                         00426a0a     LIBCMT:lldiv.obj
 0001:00025a14       L8                         00426a14     LIBCMT:lldiv.obj
 0001:00025a20       $$000000                   00426a20     LIBCMT:lldvrm.obj
 0001:00025a44       L1                         00426a44     LIBCMT:lldvrm.obj
 0001:00025a60       L2                         00426a60     LIBCMT:lldvrm.obj
 0001:00025a8c       L3                         00426a8c     LIBCMT:lldvrm.obj
 0001:00025a9a       L5                         00426a9a     LIBCMT:lldvrm.obj
 0001:00025ac8       L6                         00426ac8     LIBCMT:lldvrm.obj
 0001:00025ad1       L7                         00426ad1     LIBCMT:lldvrm.obj
 0001:00025ad3       L4                         00426ad3     LIBCMT:lldvrm.obj
 0001:00025ae5       L9                         00426ae5     LIBCMT:lldvrm.obj
 0001:00025af9       L8                         00426af9     LIBCMT:lldvrm.obj
 0001:00025b00       $$000000                   00426b00     LIBCMT:llrem.obj
 0001:00025b20       L1                         00426b20     LIBCMT:llrem.obj
 0001:00025b3b       L2                         00426b3b     LIBCMT:llrem.obj
 0001:00025b5a       L3                         00426b5a     LIBCMT:llrem.obj
 0001:00025b68       L5                         00426b68     LIBCMT:llrem.obj
 0001:00025b93       L6                         00426b93     LIBCMT:llrem.obj
 0001:00025b9b       L7                         00426b9b     LIBCMT:llrem.obj
 0001:00025ba6       L4                         00426ba6     LIBCMT:llrem.obj
 0001:00025bad       L8                         00426bad     LIBCMT:llrem.obj
 0001:00025bc0       $$000000                   00426bc0     LIBCMT:chkstk.obj
 0001:00025bd4       cs10                       00426bd4     LIBCMT:chkstk.obj
 0001:00025be2       cs20                       00426be2     LIBCMT:chkstk.obj
 0001:00025bf0       $$000000                   00426bf0     LIBCMT:alloca16.obj
 0001:00025c06       alloca_8                   00426c06     LIBCMT:alloca16.obj
 0001:00025c20       $$000000                   00426c20     LIBCMT:ftol2.obj
 0001:00025c30       $$000000                   00426c30     LIBCMT:ftol2.obj
 0001:00025c41       L3B                        00426c41     LIBCMT:ftol2.obj
 0001:00025c84       L3F                        00426c84     LIBCMT:ftol2.obj
 0001:00025c8c       L40                        00426c8c     LIBCMT:ftol2.obj
 0001:00025c9f       L41                        00426c9f     LIBCMT:ftol2.obj
 0001:00025cb0       $$000000                   00426cb0     libvcruntime:strrchr.obj
 0001:00025ced       strrchr_sse_loop           00426ced     libvcruntime:strrchr.obj
 0001:00025d1d       strrchr_sse_break          00426d1d     libvcruntime:strrchr.obj
 0001:00025d3d       strrchr_sttni              00426d3d     libvcruntime:strrchr.obj
 0001:00025d4f       strrchr_sttni_chars        00426d4f     libvcruntime:strrchr.obj
 0001:00025d64       strrchr_sttni_aligned      00426d64     libvcruntime:strrchr.obj
 0001:00025d68       strrchr_sttni_xmm          00426d68     libvcruntime:strrchr.obj
 0001:00025d7b       exit                       00426d7b     libvcruntime:strrchr.obj
 0001:00025d7e       strrchr_zero               00426d7e     libvcruntime:strrchr.obj
 0001:00025da3       strchr_zero_loop           00426da3     libvcruntime:strrchr.obj
 0001:00025db7       strchr_zero_result         00426db7     libvcruntime:strrchr.obj
 0001:00025dbe       strrchr_no_sse             00426dbe     libvcruntime:strrchr.obj
 0001:00025de1       returndi                   00426de1     libvcruntime:strrchr.obj
 0001:00025de3       toend                      00426de3     libvcruntime:strrchr.obj
 0001:00025f10       __ehhandler$?SetList@CBlackList@@QAEXPAD@Z 00426f10 f   BlackList.obj
 0001:00025f40       __unwindfunclet$??0CClientManager@@QAE@XZ$0 00426f40 f   ClientManager.obj
 0001:00025f50       __ehhandler$??0CClientManager@@QAE@XZ 00426f50 f   ClientManager.obj
 0001:00025f70       __unwindfunclet$??4?$set@V?$basic_string@DU?$char_traits@D@std@@V?$allocator@D@2@@std@@U?$less@V?$basic_string@DU?$char_traits@D@std@@V?$allocator@D@2@@std@@@2@V?$allocator@V?$basic_string@DU?$char_traits@D@std@@V?$allocator@D@2@@std@@@2@@std@@QAEAAV01@V?$initializer_list@V?$basic_string@DU?$char_traits@D@std@@V?$allocator@D@2@@std@@@1@@Z$2 00426f70 f   ClientManager.obj
 0001:00025f78       __unwindfunclet$??4?$set@V?$basic_string@DU?$char_traits@D@std@@V?$allocator@D@2@@std@@U?$less@V?$basic_string@DU?$char_traits@D@std@@V?$allocator@D@2@@std@@@2@V?$allocator@V?$basic_string@DU?$char_traits@D@std@@V?$allocator@D@2@@std@@@2@@std@@QAEAAV01@V?$initializer_list@V?$basic_string@DU?$char_traits@D@std@@V?$allocator@D@2@@std@@@1@@Z$1 00426f78 f   ClientManager.obj
 0001:00025f85       __ehhandler$??4?$set@V?$basic_string@DU?$char_traits@D@std@@V?$allocator@D@2@@std@@U?$less@V?$basic_string@DU?$char_traits@D@std@@V?$allocator@D@2@@std@@@2@V?$allocator@V?$basic_string@DU?$char_traits@D@std@@V?$allocator@D@2@@std@@@2@@std@@QAEAAV01@V?$initializer_list@V?$basic_string@DU?$char_traits@D@std@@V?$allocator@D@2@@std@@@1@@Z 00426f85 f   ClientManager.obj
 0001:00025fb0       __unwindfunclet$??$insert@$0A@$0A@@?$_Tree@V?$_Tset_traits@V?$basic_string@DU?$char_traits@D@std@@V?$allocator@D@2@@std@@U?$less@V?$basic_string@DU?$char_traits@D@std@@V?$allocator@D@2@@std@@@2@V?$allocator@V?$basic_string@DU?$char_traits@D@std@@V?$allocator@D@2@@std@@@2@$0A@@std@@@std@@QAE?AU?$pair@V?$_Tree_const_iterator@V?$_Tree_val@U?$_Tree_simple_types@V?$basic_string@DU?$char_traits@D@std@@V?$allocator@D@2@@std@@@std@@@std@@@std@@_N@1@$$QAV?$basic_string@DU?$char_traits@D@std@@V?$allocator@D@2@@1@@Z$2 00426fb0 f   ClientManager.obj
 0001:00025fbd       __ehhandler$??$insert@$0A@$0A@@?$_Tree@V?$_Tset_traits@V?$basic_string@DU?$char_traits@D@std@@V?$allocator@D@2@@std@@U?$less@V?$basic_string@DU?$char_traits@D@std@@V?$allocator@D@2@@std@@@2@V?$allocator@V?$basic_string@DU?$char_traits@D@std@@V?$allocator@D@2@@std@@@2@$0A@@std@@@std@@QAE?AU?$pair@V?$_Tree_const_iterator@V?$_Tree_val@U?$_Tree_simple_types@V?$basic_string@DU?$char_traits@D@std@@V?$allocator@D@2@@std@@@std@@@std@@@std@@_N@1@$$QAV?$basic_string@DU?$char_traits@D@std@@V?$allocator@D@2@@1@@Z 00426fbd f   ClientManager.obj
 0001:00025fe0       __unwindfunclet$?PlayersList@@YGJPAUHWND__@@IIJ@Z$9 00426fe0 f   HackServer.obj
 0001:00025feb       __unwindfunclet$?PlayersList@@YGJPAUHWND__@@IIJ@Z$4 00426feb f   HackServer.obj
 0001:00025ffb       __ehhandler$?PlayersList@@YGJPAUHWND__@@IIJ@Z 00426ffb f   HackServer.obj
 0001:00026030       __unwindfunclet$??$_Copy_nodes@$0A@@?$_Tree@V?$_Tset_traits@V?$basic_string@DU?$char_traits@D@std@@V?$allocator@D@2@@std@@U?$less@V?$basic_string@DU?$char_traits@D@std@@V?$allocator@D@2@@std@@@2@V?$allocator@V?$basic_string@DU?$char_traits@D@std@@V?$allocator@D@2@@std@@@2@$0A@@std@@@std@@IAEPAU?$_Tree_node@V?$basic_string@DU?$char_traits@D@std@@V?$allocator@D@2@@std@@PAX@1@PAU21@0@Z$2 00427030 f   HackServer.obj
 0001:0002603d       __ehhandler$??$_Copy_nodes@$0A@@?$_Tree@V?$_Tset_traits@V?$basic_string@DU?$char_traits@D@std@@V?$allocator@D@2@@std@@U?$less@V?$basic_string@DU?$char_traits@D@std@@V?$allocator@D@2@@std@@@2@V?$allocator@V?$basic_string@DU?$char_traits@D@std@@V?$allocator@D@2@@std@@@2@$0A@@std@@@std@@IAEPAU?$_Tree_node@V?$basic_string@DU?$char_traits@D@std@@V?$allocator@D@2@@std@@PAX@1@PAU21@0@Z 0042703d f   HackServer.obj
 0001:00026060       __unwindfunclet$?CHCProcessInfoRecv@@YAXPAUSHDP_SHOW_PROCESS_SEND@@H@Z$2 00427060 f   HackServerProtocol.obj
 0001:0002606d       __ehhandler$?CHCProcessInfoRecv@@YAXPAUSHDP_SHOW_PROCESS_SEND@@H@Z 0042706d f   HackServerProtocol.obj
 0001:000260a0       __unwindfunclet$?InsertIpAddress@CIpManager@@QAEXPAD@Z$1 004270a0 f   IpManager.obj
 0001:000260ab       __unwindfunclet$?InsertIpAddress@CIpManager@@QAEXPAD@Z$2 004270ab f   IpManager.obj
 0001:000260b3       __unwindfunclet$?InsertIpAddress@CIpManager@@QAEXPAD@Z$10 004270b3 f   IpManager.obj
 0001:000260c3       __ehhandler$?InsertIpAddress@CIpManager@@QAEXPAD@Z 004270c3 f   IpManager.obj
 0001:000260f0       __unwindfunclet$??__EgProcessManager@@YAXXZ$0 004270f0 f   ProcessManager.obj
 0001:000260ff       __ehhandler$??__EgProcessManager@@YAXXZ 004270ff f   ProcessManager.obj
 0001:00026120       __unwindfunclet$?CheckProcess@CProcessManager@@QAE_NXZ$2 00427120 f   ProcessManager.obj
 0001:00026130       __ehhandler$?CheckProcess@CProcessManager@@QAE_NXZ 00427130 f   ProcessManager.obj
 0001:00026160       __ehhandler$??_GCQueue@@UAEPAXI@Z 00427160 f   Queue.obj
 0001:00026180       __ehhandler$?DumpList@CReadFiles@@QAEXPAD@Z 00427180 f   ReadFiles.obj
 0001:000261b0       __ehhandler$?ChecksumList@CReadFiles@@QAEXPAD@Z 004271b0 f   ReadFiles.obj
 0001:000261e0       __ehhandler$?InternalList@CReadFiles@@QAEXPAD@Z 004271e0 f   ReadFiles.obj
 0001:00026210       __ehhandler$?WindowList@CReadFiles@@QAEXPAD@Z 00427210 f   ReadFiles.obj
 0001:00026240       __unwindfunclet$??__EgSocketManager@@YAXXZ$2 00427240 f   SocketManager.obj
 0001:00026250       __ehhandler$??__EgSocketManager@@YAXXZ 00427250 f   SocketManager.obj
 0001:00026270       __ehhandler$??__FgSocketManager@@YAXXZ 00427270 f   SocketManager.obj
 0001:00026290       __ehhandler$??_GCSocketManager@@UAEPAXI@Z 00427290 f   SocketManager.obj
 0001:000262ad       __ehhandler$?CallUnexpected@@YAXPBU_s_ESTypeList@@@Z 004272ad f   libvcruntime:frame.obj
 0001:000262ca       __ehhandler$?common_exit@@YAXHW4_crt_exit_cleanup_mode@@W4_crt_exit_return_mode@@@Z 004272ca f   libucrt:exit.obj
 0001:000262e7       __ehhandler$?try_cor_exit_process@@YAXI@Z 004272e7 f   libucrt:exit.obj
 0001:00026304       __ehhandler$___dcrt_uninitialize_environments_nolock 00427304 f   libucrt:environment_initialization.obj
 0001:00026321       __ehhandler$__execute_onexit_table 00427321 f   libucrt:onexit.obj
 0001:0002633e       __ehhandler$?write_double_translated_ansi_nolock@@YA?AUwrite_result@?A0x17268360@@HQBDIAAV__crt_cached_ptd_host@@@Z 0042733e f   libucrt:write.obj
 0001:00026370       ??__FgAuthenticate@@YAXXZ  00427370 f   Authenticate.obj
 0001:000263b0       ??__FgBlackList@@YAXXZ     004273b0 f   BlackList.obj
 0001:000263d0       ??__FgClientManager@@YAXXZ 004273d0 f   ClientManager.obj
 0001:000263f0       ??__FgHidManager@@YAXXZ    004273f0 f   HidManager.obj
 0001:00026410       ??__FgIpManager@@YAXXZ     00427410 f   IpManager.obj
 0001:00026450       ??__FgLog@@YAXXZ           00427450 f   Log.obj
 0001:00026460       ??__FgProcessManager@@YAXXZ 00427460 f   ProcessManager.obj
 0001:00026490       ??__FgReadFiles@@YAXXZ     00427490 f   ReadFiles.obj
 0001:000264d0       ??__FgServerDisplayer@@YAXXZ 004274d0 f   ServerDisplayer.obj
 0001:00026500       ??__FgServerInfo@@YAXXZ    00427500 f   ServerInfo.obj
 0001:00026510       ??__FgSocketManager@@YAXXZ 00427510 f   SocketManager.obj
 0002:000002a4       ?pre_cpp_initializer@@3P6AXXZA 004282a4     LIBCMT:exe_winmain.obj
 0002:000002a8       ?gAuthenticate$initializer$@@3P6AXXZA 004282a8     Authenticate.obj
 0002:000002ac       ?gBlackList$initializer$@@3P6AXXZA 004282ac     BlackList.obj
 0002:000002b0       ?gClientManager$initializer$@@3P6AXXZA 004282b0     ClientManager.obj
 0002:000002b4       ?gHidManager$initializer$@@3P6AXXZA 004282b4     HidManager.obj
 0002:000002b8       ?gIpManager$initializer$@@3P6AXXZA 004282b8     IpManager.obj
 0002:000002bc       ?gLog$initializer$@@3P6AXXZA 004282bc     Log.obj
 0002:000002c0       ?gProcessManager$initializer$@@3P6AXXZA 004282c0     ProcessManager.obj
 0002:000002c4       ?gReadFiles$initializer$@@3P6AXXZA 004282c4     ReadFiles.obj
 0002:000002c8       ?gServerDisplayer$initializer$@@3P6AXXZA 004282c8     ServerDisplayer.obj
 0002:000002cc       ?gServerInfo$initializer$@@3P6AXXZA 004282cc     ServerInfo.obj
 0002:000002d0       ?gSocketManager$initializer$@@3P6AXXZA 004282d0     SocketManager.obj
 0002:000002dc       ?pre_c_initializer@@3P6AHXZA 004282dc     LIBCMT:exe_winmain.obj
 0002:000002e0       ?post_pgo_initializer@@3P6AHXZA 004282e0     LIBCMT:exe_winmain.obj
 0002:00000368       _GS_ExceptionPointers      00428368     LIBCMT:gs_report.obj
 0002:000003a0       ?tokenTable@@3QBUStringLiteral@@B 004283a0     libvcruntime:undname.obj
 0002:00000428       ?nameTable@@3QBUStringLiteral@@B 00428428     libvcruntime:undname.obj
 0002:000006c0       ?rttiTable@@3QBUStringLiteral@@B 004286c0     libvcruntime:undname.obj
 0002:000006e8       ?IndirectionName@@3QBUStringLiteral@@B 004286e8     libvcruntime:undname.obj
 0002:00000718       ?PrefixName@@3QBUStringLiteral@@B 00428718     libvcruntime:undname.obj
 0002:00000d4c       ?module_names@?A0x14174aea@@3QBQB_WB 00428d4c     libvcruntime:winapi_downlevel.obj
 0002:00000df4       ?candidate_modules@?1??try_get_FlsAlloc@@YAP6GKP6GXPAX@Z@ZXZ@4QBW4module_id@?A0x14174aea@@B 00428df4     libvcruntime:winapi_downlevel.obj
 0002:00000e08       ?candidate_modules@?1??try_get_FlsFree@@YAP6GHK@ZXZ@4QBW4module_id@?A0x14174aea@@B 00428e08     libvcruntime:winapi_downlevel.obj
 0002:00000e18       ?candidate_modules@?1??try_get_FlsGetValue@@YAP6GPAXK@ZXZ@4QBW4module_id@?A0x14174aea@@B 00428e18     libvcruntime:winapi_downlevel.obj
 0002:00000e2c       ?candidate_modules@?1??try_get_FlsSetValue@@YAP6GHKPAX@ZXZ@4QBW4module_id@?A0x14174aea@@B 00428e2c     libvcruntime:winapi_downlevel.obj
 0002:00000e40       ?candidate_modules@?1??try_get_InitializeCriticalSectionEx@@YAP6GHPAU_RTL_CRITICAL_SECTION@@KK@ZXZ@4QBW4module_id@?A0x14174aea@@B 00428e40     libvcruntime:winapi_downlevel.obj
 0002:00001d50       ___acrt_initializers       00429d50     libucrt:initialization.obj
 0002:00001dd0       ?errtable@@3QBUerrentry@?A0x31fdb9ec@@B 00429dd0     libucrt:errno.obj
 0002:00002c20       ?strings@?1??fp_format_nan_or_infinity@@YAHW4__acrt_fp_class@@_NPADI1@Z@4QAY03QBDA 0042ac20     libucrt:cvt.obj
 0002:00002ca8       ?module_names@?A0x391cf84c@@3QBQB_WB 0042aca8     libucrt:winapi_thunks.obj
 0002:0000315c       ?candidate_modules@?1??try_get_AreFileApisANSI@@YAP6GHXZXZ@4QBW4module_id@?A0x391cf84c@@B 0042b15c     libucrt:winapi_thunks.obj
 0002:00003170       ?candidate_modules@?1??try_get_CompareStringEx@@YAP6GHPB_WK0H0HPAU_nlsversioninfo@@PAXJ@ZXZ@4QBW4module_id@?A0x391cf84c@@B 0042b170     libucrt:winapi_thunks.obj
 0002:00003188       ?candidate_modules@?1??try_get_InitializeCriticalSectionEx@@YAP6GHPAU_RTL_CRITICAL_SECTION@@KK@ZXZ@4QBW4module_id@?A0x391cf84c@@B 0042b188     libucrt:winapi_thunks.obj
 0002:00003190       ?candidate_modules@?1??try_get_LCMapStringEx@@YAP6GHPB_WK0HPA_WHPAU_nlsversioninfo@@PAXJ@ZXZ@4QBW4module_id@?A0x391cf84c@@B 0042b190     libucrt:winapi_thunks.obj
 0002:000031a8       ?candidate_modules@?1??try_get_LocaleNameToLCID@@YAP6GKPB_WK@ZXZ@4QBW4module_id@?A0x391cf84c@@B 0042b1a8     libucrt:winapi_thunks.obj
 0002:000031c4       ?candidate_modules@?1??try_get_AppPolicyGetProcessTerminationMethod@@YAP6GJPAXPAW4AppPolicyProcessTerminationMethod@@@ZXZ@4QBW4module_id@?A0x391cf84c@@B 0042b1c4     libucrt:winapi_thunks.obj
 0002:000031f0       ?candidate_modules@?1??try_get_FlsAlloc@@YAP6GKP6GXPAX@Z@ZXZ@4QBW4module_id@?A0x391cf84c@@B 0042b1f0     libucrt:winapi_thunks.obj
 0002:000031f8       ?candidate_modules@?1??try_get_FlsFree@@YAP6GHK@ZXZ@4QBW4module_id@?A0x391cf84c@@B 0042b1f8     libucrt:winapi_thunks.obj
 0002:00003200       ?candidate_modules@?1??try_get_FlsGetValue@@YAP6GPAXK@ZXZ@4QBW4module_id@?A0x391cf84c@@B 0042b200     libucrt:winapi_thunks.obj
 0002:00003208       ?candidate_modules@?1??try_get_FlsSetValue@@YAP6GHKPAX@ZXZ@4QBW4module_id@?A0x391cf84c@@B 0042b208     libucrt:winapi_thunks.obj
 0002:000032c0       ?_mb_locale_names@@3QBQB_WB 0042b2c0     libucrt:mbctype.obj
 0002:00003330       ?LcidToLocaleNameTable@?A0x881e4c05@@3QBULcidToLocaleName@1@B 0042b330     libucrt:lcidtoname_downlevel.obj
 0002:00004450       ?LocaleNameToIndexTable@?A0x881e4c05@@3QBULocaleNameIndex@1@B 0042c450     libucrt:lcidtoname_downlevel.obj
 0002:000053a0       _over                      0042d3a0     libucrt:fpctrl.obj
 0002:000053ac       _under                     0042d3ac     libucrt:fpctrl.obj
 0002:000053c0       LOG_name                   0042d3c0     libucrt:log10_impl.obj
 0002:000053d0       _One                       0042d3d0     libucrt:ceil_pentium4.obj
 0002:000053e0       _Bns                       0042d3e0     libucrt:ceil_pentium4.obj
 0002:000053f0       _Zero                      0042d3f0     libucrt:ceil_pentium4.obj
 0002:00005400       _S                         0042d400     libucrt:ceil_pentium4.obj
 0002:00005410       _NegZero                   0042d410     libucrt:ceil_pentium4.obj
 0002:00005430       emask                      0042d430     libucrt:log10_pentium4.obj
 0002:00005440       CC                         0042d440     libucrt:log10_pentium4.obj
 0002:00005450       Magic                      0042d450     libucrt:log10_pentium4.obj
 0002:00005460       hi_mask                    0042d460     libucrt:log10_pentium4.obj
 0002:00005470       LOG10_2                    0042d470     libucrt:log10_pentium4.obj
 0002:00005480       place_L                    0042d480     libucrt:log10_pentium4.obj
 0002:000054a0       One                        0042d4a0     libucrt:log10_pentium4.obj
 0002:000054b0       Zero                       0042d4b0     libucrt:log10_pentium4.obj
 0002:000054c0       Two52                      0042d4c0     libucrt:log10_pentium4.obj
 0002:000054d0       Infs                       0042d4d0     libucrt:log10_pentium4.obj
 0002:000054e0       NaN                        0042d4e0     libucrt:log10_pentium4.obj
 0002:000054f0       coeff                      0042d4f0     libucrt:log10_pentium4.obj
 0002:0000554e       _log2max                   0042d54e     libucrt:87tran.obj
 0002:00005558       _smallarg                  0042d558     libucrt:87tran.obj
 0002:00005562       _half                      0042d562     libucrt:87tran.obj
 0002:000055ae       One                        0042d5ae     libucrt:87disp.obj
 0002:000055b6       Three                      0042d5b6     libucrt:87disp.obj
 0002:000055be       XAMtoTagTab                0042d5be     libucrt:87disp.obj
 0002:000055d0       One                        0042d5d0     libucrt:common.obj
 0002:000055e4       DblMax                     0042d5e4     libucrt:common.obj
 0002:000055ec       DblMin                     0042d5ec     libucrt:common.obj
 0002:000055f4       IeeeAdjO                   0042d5f4     libucrt:common.obj
 0002:000055fc       IeeeAdjU                   0042d5fc     libucrt:common.obj
 0002:00005604       _infinity                  0042d604     libucrt:common.obj
 0002:0000560c       _zero                      0042d60c     libucrt:common.obj
 0002:00005e78       ?_names@?1??_get_fname@@9@4QBU<unnamed-type-_names>@?1??1@YAPADI@Z@B 0042de78     libucrt:fpexcept.obj
 0002:00006020       two32                      0042e020     LIBCMT:ftol2.obj
 0002:00006024       two63                      0042e024     LIBCMT:ftol2.obj
 0002:00006028       two64                      0042e028     LIBCMT:ftol2.obj
 0002:0000602c       _NaN                       0042e02c     LIBCMT:ftol2.obj
 0002:0000609a       ?_Fake_alloc@std@@3U_Fake_allocator@1@B 0042e09a     BlackList.obj
 0002:0000609b       ?_Fake_alloc@std@@3U_Fake_allocator@1@B 0042e09b     ClientManager.obj
 0002:0000609c       ?_Fake_alloc@std@@3U_Fake_allocator@1@B 0042e09c     HackServer.obj
 0002:0000609d       ?_Fake_alloc@std@@3U_Fake_allocator@1@B 0042e09d     HidManager.obj
 0002:0000609e       ?_Fake_alloc@std@@3U_Fake_allocator@1@B 0042e09e     IpManager.obj
 0002:0000609f       ?_Fake_alloc@std@@3U_Fake_allocator@1@B 0042e09f     ProcessManager.obj
 0002:000060a0       ?_Fake_alloc@std@@3U_Fake_allocator@1@B 0042e0a0     ReadFiles.obj
 0002:000060a1       ?_Fake_alloc@std@@3U_Fake_allocator@1@B 0042e0a1     stdafx.obj
 0002:00007a78       __ehfuncinfo$?SetList@CBlackList@@QAEXPAD@Z 0042fa78     BlackList.obj
 0002:00007a9c       __unwindtable$?SetList@CBlackList@@QAEXPAD@Z 0042fa9c     BlackList.obj
 0002:00007aac       __tryblocktable$?SetList@CBlackList@@QAEXPAD@Z 0042faac     BlackList.obj
 0002:00007ac0       __catchsym$?SetList@CBlackList@@QAEXPAD@Z$3 0042fac0     BlackList.obj
 0002:00007ad0       __ehfuncinfo$??0CClientManager@@QAE@XZ 0042fad0     ClientManager.obj
 0002:00007af4       __unwindtable$??0CClientManager@@QAE@XZ 0042faf4     ClientManager.obj
 0002:00007afc       __ehfuncinfo$??4?$set@V?$basic_string@DU?$char_traits@D@std@@V?$allocator@D@2@@std@@U?$less@V?$basic_string@DU?$char_traits@D@std@@V?$allocator@D@2@@std@@@2@V?$allocator@V?$basic_string@DU?$char_traits@D@std@@V?$allocator@D@2@@std@@@2@@std@@QAEAAV01@V?$initializer_list@V?$basic_string@DU?$char_traits@D@std@@V?$allocator@D@2@@std@@@1@@Z 0042fafc     ClientManager.obj
 0002:00007b20       __unwindtable$??4?$set@V?$basic_string@DU?$char_traits@D@std@@V?$allocator@D@2@@std@@U?$less@V?$basic_string@DU?$char_traits@D@std@@V?$allocator@D@2@@std@@@2@V?$allocator@V?$basic_string@DU?$char_traits@D@std@@V?$allocator@D@2@@std@@@2@@std@@QAEAAV01@V?$initializer_list@V?$basic_string@DU?$char_traits@D@std@@V?$allocator@D@2@@std@@@1@@Z 0042fb20     ClientManager.obj
 0002:00007b30       __ehfuncinfo$??$insert@$0A@$0A@@?$_Tree@V?$_Tset_traits@V?$basic_string@DU?$char_traits@D@std@@V?$allocator@D@2@@std@@U?$less@V?$basic_string@DU?$char_traits@D@std@@V?$allocator@D@2@@std@@@2@V?$allocator@V?$basic_string@DU?$char_traits@D@std@@V?$allocator@D@2@@std@@@2@$0A@@std@@@std@@QAE?AU?$pair@V?$_Tree_const_iterator@V?$_Tree_val@U?$_Tree_simple_types@V?$basic_string@DU?$char_traits@D@std@@V?$allocator@D@2@@std@@@std@@@std@@@std@@_N@1@$$QAV?$basic_string@DU?$char_traits@D@std@@V?$allocator@D@2@@1@@Z 0042fb30     ClientManager.obj
 0002:00007b54       __unwindtable$??$insert@$0A@$0A@@?$_Tree@V?$_Tset_traits@V?$basic_string@DU?$char_traits@D@std@@V?$allocator@D@2@@std@@U?$less@V?$basic_string@DU?$char_traits@D@std@@V?$allocator@D@2@@std@@@2@V?$allocator@V?$basic_string@DU?$char_traits@D@std@@V?$allocator@D@2@@std@@@2@$0A@@std@@@std@@QAE?AU?$pair@V?$_Tree_const_iterator@V?$_Tree_val@U?$_Tree_simple_types@V?$basic_string@DU?$char_traits@D@std@@V?$allocator@D@2@@std@@@std@@@std@@@std@@_N@1@$$QAV?$basic_string@DU?$char_traits@D@std@@V?$allocator@D@2@@1@@Z 0042fb54     ClientManager.obj
 0002:00007b5c       __ehfuncinfo$?PlayersList@@YGJPAUHWND__@@IIJ@Z 0042fb5c     HackServer.obj
 0002:00007b80       __unwindtable$?PlayersList@@YGJPAUHWND__@@IIJ@Z 0042fb80     HackServer.obj
 0002:00007bb0       __tryblocktable$?PlayersList@@YGJPAUHWND__@@IIJ@Z 0042fbb0     HackServer.obj
 0002:00007bd8       __catchsym$?PlayersList@@YGJPAUHWND__@@IIJ@Z$10 0042fbd8     HackServer.obj
 0002:00007be8       __catchsym$?PlayersList@@YGJPAUHWND__@@IIJ@Z$11 0042fbe8     HackServer.obj
 0002:00007bf8       __ehfuncinfo$??$_Copy_nodes@$0A@@?$_Tree@V?$_Tset_traits@V?$basic_string@DU?$char_traits@D@std@@V?$allocator@D@2@@std@@U?$less@V?$basic_string@DU?$char_traits@D@std@@V?$allocator@D@2@@std@@@2@V?$allocator@V?$basic_string@DU?$char_traits@D@std@@V?$allocator@D@2@@std@@@2@$0A@@std@@@std@@IAEPAU?$_Tree_node@V?$basic_string@DU?$char_traits@D@std@@V?$allocator@D@2@@std@@PAX@1@PAU21@0@Z 0042fbf8     HackServer.obj
 0002:00007c1c       __unwindtable$??$_Copy_nodes@$0A@@?$_Tree@V?$_Tset_traits@V?$basic_string@DU?$char_traits@D@std@@V?$allocator@D@2@@std@@U?$less@V?$basic_string@DU?$char_traits@D@std@@V?$allocator@D@2@@std@@@2@V?$allocator@V?$basic_string@DU?$char_traits@D@std@@V?$allocator@D@2@@std@@@2@$0A@@std@@@std@@IAEPAU?$_Tree_node@V?$basic_string@DU?$char_traits@D@std@@V?$allocator@D@2@@std@@PAX@1@PAU21@0@Z 0042fc1c     HackServer.obj
 0002:00007c34       __tryblocktable$??$_Copy_nodes@$0A@@?$_Tree@V?$_Tset_traits@V?$basic_string@DU?$char_traits@D@std@@V?$allocator@D@2@@std@@U?$less@V?$basic_string@DU?$char_traits@D@std@@V?$allocator@D@2@@std@@@2@V?$allocator@V?$basic_string@DU?$char_traits@D@std@@V?$allocator@D@2@@std@@@2@$0A@@std@@@std@@IAEPAU?$_Tree_node@V?$basic_string@DU?$char_traits@D@std@@V?$allocator@D@2@@std@@PAX@1@PAU21@0@Z 0042fc34     HackServer.obj
 0002:00007c48       __catchsym$??$_Copy_nodes@$0A@@?$_Tree@V?$_Tset_traits@V?$basic_string@DU?$char_traits@D@std@@V?$allocator@D@2@@std@@U?$less@V?$basic_string@DU?$char_traits@D@std@@V?$allocator@D@2@@std@@@2@V?$allocator@V?$basic_string@DU?$char_traits@D@std@@V?$allocator@D@2@@std@@@2@$0A@@std@@@std@@IAEPAU?$_Tree_node@V?$basic_string@DU?$char_traits@D@std@@V?$allocator@D@2@@std@@PAX@1@PAU21@0@Z$3 0042fc48     HackServer.obj
 0002:00007c58       __ehfuncinfo$?CHCProcessInfoRecv@@YAXPAUSHDP_SHOW_PROCESS_SEND@@H@Z 0042fc58     HackServerProtocol.obj
 0002:00007c7c       __unwindtable$?CHCProcessInfoRecv@@YAXPAUSHDP_SHOW_PROCESS_SEND@@H@Z 0042fc7c     HackServerProtocol.obj
 0002:00007c94       __tryblocktable$?CHCProcessInfoRecv@@YAXPAUSHDP_SHOW_PROCESS_SEND@@H@Z 0042fc94     HackServerProtocol.obj
 0002:00007ca8       __catchsym$?CHCProcessInfoRecv@@YAXPAUSHDP_SHOW_PROCESS_SEND@@H@Z$13 0042fca8     HackServerProtocol.obj
 0002:00007cb8       __ehfuncinfo$?InsertIpAddress@CIpManager@@QAEXPAD@Z 0042fcb8     IpManager.obj
 0002:00007cdc       __unwindtable$?InsertIpAddress@CIpManager@@QAEXPAD@Z 0042fcdc     IpManager.obj
 0002:00007cf4       __ehfuncinfo$??__EgProcessManager@@YAXXZ 0042fcf4     ProcessManager.obj
 0002:00007d18       __unwindtable$??__EgProcessManager@@YAXXZ 0042fd18     ProcessManager.obj
 0002:00007d20       __ehfuncinfo$?CheckProcess@CProcessManager@@QAE_NXZ 0042fd20     ProcessManager.obj
 0002:00007d44       __unwindtable$?CheckProcess@CProcessManager@@QAE_NXZ 0042fd44     ProcessManager.obj
 0002:00007d4c       __ehfuncinfo$??_GCQueue@@UAEPAXI@Z 0042fd4c     Queue.obj
 0002:00007d70       __unwindtable$??_GCQueue@@UAEPAXI@Z 0042fd70     Queue.obj
 0002:00007d78       __ehfuncinfo$?DumpList@CReadFiles@@QAEXPAD@Z 0042fd78     ReadFiles.obj
 0002:00007d9c       __unwindtable$?DumpList@CReadFiles@@QAEXPAD@Z 0042fd9c     ReadFiles.obj
 0002:00007dac       __tryblocktable$?DumpList@CReadFiles@@QAEXPAD@Z 0042fdac     ReadFiles.obj
 0002:00007dc0       __catchsym$?DumpList@CReadFiles@@QAEXPAD@Z$3 0042fdc0     ReadFiles.obj
 0002:00007dd0       __ehfuncinfo$?ChecksumList@CReadFiles@@QAEXPAD@Z 0042fdd0     ReadFiles.obj
 0002:00007df4       __unwindtable$?ChecksumList@CReadFiles@@QAEXPAD@Z 0042fdf4     ReadFiles.obj
 0002:00007e04       __tryblocktable$?ChecksumList@CReadFiles@@QAEXPAD@Z 0042fe04     ReadFiles.obj
 0002:00007e18       __catchsym$?ChecksumList@CReadFiles@@QAEXPAD@Z$3 0042fe18     ReadFiles.obj
 0002:00007e28       __ehfuncinfo$?InternalList@CReadFiles@@QAEXPAD@Z 0042fe28     ReadFiles.obj
 0002:00007e4c       __unwindtable$?InternalList@CReadFiles@@QAEXPAD@Z 0042fe4c     ReadFiles.obj
 0002:00007e5c       __tryblocktable$?InternalList@CReadFiles@@QAEXPAD@Z 0042fe5c     ReadFiles.obj
 0002:00007e70       __catchsym$?InternalList@CReadFiles@@QAEXPAD@Z$3 0042fe70     ReadFiles.obj
 0002:00007e80       __ehfuncinfo$?WindowList@CReadFiles@@QAEXPAD@Z 0042fe80     ReadFiles.obj
 0002:00007ea4       __unwindtable$?WindowList@CReadFiles@@QAEXPAD@Z 0042fea4     ReadFiles.obj
 0002:00007eb4       __tryblocktable$?WindowList@CReadFiles@@QAEXPAD@Z 0042feb4     ReadFiles.obj
 0002:00007ec8       __catchsym$?WindowList@CReadFiles@@QAEXPAD@Z$3 0042fec8     ReadFiles.obj
 0002:00007ed8       __ehfuncinfo$??__EgSocketManager@@YAXXZ 0042fed8     SocketManager.obj
 0002:00007efc       __unwindtable$??__EgSocketManager@@YAXXZ 0042fefc     SocketManager.obj
 0002:00007f04       __ehfuncinfo$??__FgSocketManager@@YAXXZ 0042ff04     SocketManager.obj
 0002:00007f28       __unwindtable$??__FgSocketManager@@YAXXZ 0042ff28     SocketManager.obj
 0002:00007f38       __ehfuncinfo$??_GCSocketManager@@UAEPAXI@Z 0042ff38     SocketManager.obj
 0002:00007f5c       __unwindtable$??_GCSocketManager@@UAEPAXI@Z 0042ff5c     SocketManager.obj
 0002:00007fe0       __sehtable$___scrt_is_nonwritable_in_current_image 0042ffe0     LIBCMT:utility.obj
 0002:00008000       __sehtable$??_L@YGXPAXIIP6EX0@Z1@Z 00430000     LIBCMT:ehvecctr.obj
 0002:00008020       __sehtable$??_M@YGXPAXIIP6EX0@Z@Z 00430020     LIBCMT:ehvecdtr.obj
 0002:00008040       __sehtable$?__ArrayUnwind@@YGXPAXIIP6EX0@Z@Z 00430040     LIBCMT:ehvecdtr.obj
 0002:00008060       __sehtable$?__scrt_common_main_seh@@YAHXZ 00430060     LIBCMT:exe_winmain.obj
 0002:00008080       __sehtable$___DestructExceptionObject 00430080     libvcruntime:ehhelpers.obj
 0002:000080a0       __sehtable$?FrameUnwindToState@__FrameHandler3@@SAXPAUEHRegistrationNode@@PAXPBU_s_FuncInfo@@H@Z 004300a0     libvcruntime:frame.obj
 0002:000080c8       __sehtable$?CallCatchBlock@@YAPAXPAUEHExceptionRecord@@PAUEHRegistrationNode@@PAU_CONTEXT@@PBU_s_FuncInfo@@PAXHK@Z 004300c8     libvcruntime:frame.obj
 0002:000080f0       __catchsym$?CallUnexpected@@YAXPBU_s_ESTypeList@@@Z$2 004300f0     libvcruntime:frame.obj
 0002:00008100       __unwindtable$?CallUnexpected@@YAXPBU_s_ESTypeList@@@Z 00430100     libvcruntime:frame.obj
 0002:00008110       __tryblocktable$?CallUnexpected@@YAXPBU_s_ESTypeList@@@Z 00430110     libvcruntime:frame.obj
 0002:00008124       __ehfuncinfo$?CallUnexpected@@YAXPBU_s_ESTypeList@@@Z 00430124     libvcruntime:frame.obj
 0002:00008148       __sehtable$??$BuildCatchObjectHelperInternal@V__FrameHandler3@@@@YAHPAUEHExceptionRecord@@PAXPBU_s_HandlerType@@PBU_s_CatchableType@@@Z 00430148     libvcruntime:frame.obj
 0002:00008168       __sehtable$??$BuildCatchObjectInternal@V__FrameHandler3@@@@YAXPAUEHExceptionRecord@@PAXPBU_s_HandlerType@@PBU_s_CatchableType@@@Z 00430168     libvcruntime:frame.obj
 0002:000081c0       __sehtable$??$common_fsopen@D@@YAPAU_iobuf@@QBD0H@Z 004301c0     libucrt:fopen.obj
 0002:000081e0       __sehtable$?_fclose_internal@@YAHQAU_iobuf@@AAV__crt_cached_ptd_host@@@Z 004301e0     libucrt:fclose.obj
 0002:00008200       __sehtable$_fread_s        00430200     libucrt:fread.obj
 0002:00008220       __sehtable$??$?RV<lambda_76055cf4b68c1f980da8b7496a3ae623>@@AAV<lambda_26974eb511f701c600fccfa2a97a8e1b>@@V<lambda_0062726809bb3c529c0733aa37379daf>@@@?$__crt_seh_guarded_call@I@@QAEI$$QAV<lambda_76055cf4b68c1f980da8b7496a3ae623>@@AAV<lambda_26974eb511f701c600fccfa2a97a8e1b>@@$$QAV<lambda_0062726809bb3c529c0733aa37379daf>@@@Z 00430220     libucrt:fwrite.obj
 0002:0000823c       __ehfuncinfo$?write_double_translated_ansi_nolock@@YA?AUwrite_result@?A0x17268360@@HQBDIAAV__crt_cached_ptd_host@@@Z 0043023c     libucrt:write.obj
 0002:0000823c       __ehfuncinfo$?try_cor_exit_process@@YAXI@Z 0043023c     libucrt:exit.obj
 0002:00008260       __unwindtable$?common_exit@@YAXHW4_crt_exit_cleanup_mode@@W4_crt_exit_return_mode@@@Z 00430260     libucrt:exit.obj
 0002:00008268       __ehfuncinfo$?common_exit@@YAXHW4_crt_exit_cleanup_mode@@W4_crt_exit_return_mode@@@Z 00430268     libucrt:exit.obj
 0002:00008290       __sehtable$??R<lambda_6e4b09c48022b2350581041d5f6b0c4c>@@QBE@XZ 00430290     libucrt:exit.obj
 0002:000082b0       __sehtable$??$?RV<lambda_03b1d95aef87969028cfba75ccab2455>@@AAV<lambda_6e4b09c48022b2350581041d5f6b0c4c>@@V<lambda_22bdf7517842c4b3e53723af5aa32b9e>@@@?$__crt_seh_guarded_call@X@@QAEX$$QAV<lambda_03b1d95aef87969028cfba75ccab2455>@@AAV<lambda_6e4b09c48022b2350581041d5f6b0c4c>@@$$QAV<lambda_22bdf7517842c4b3e53723af5aa32b9e>@@@Z 004302b0     libucrt:exit.obj
 0002:000082cc       __unwindtable$___dcrt_uninitialize_environments_nolock 004302cc     libucrt:environment_initialization.obj
 0002:000082dc       __ehfuncinfo$___dcrt_uninitialize_environments_nolock 004302dc     libucrt:environment_initialization.obj
 0002:00008300       __unwindtable$__execute_onexit_table 00430300     libucrt:onexit.obj
 0002:00008308       __ehfuncinfo$__execute_onexit_table 00430308     libucrt:onexit.obj
 0002:00008330       __sehtable$??$?RV<lambda_8e746cf0007f6ed984d6f78af1fec997>@@AAV<lambda_22ebabd17bc4fa466a2aca6d8deb888d>@@V<lambda_18ed0c0b38a6dc0daf1e7ac6d6adf05e>@@@?$__crt_seh_guarded_call@H@@QAEH$$QAV<lambda_8e746cf0007f6ed984d6f78af1fec997>@@AAV<lambda_22ebabd17bc4fa466a2aca6d8deb888d>@@$$QAV<lambda_18ed0c0b38a6dc0daf1e7ac6d6adf05e>@@@Z 00430330     libucrt:onexit.obj
 0002:00008350       __sehtable$??$?RV<lambda_69a2805e680e0e292e8ba93315fe43a8>@@AAV<lambda_f03950bc5685219e0bcd2087efbe011e>@@V<lambda_03fcd07e894ec930e3f35da366ca99d6>@@@?$__crt_seh_guarded_call@H@@QAEH$$QAV<lambda_69a2805e680e0e292e8ba93315fe43a8>@@AAV<lambda_f03950bc5685219e0bcd2087efbe011e>@@$$QAV<lambda_03fcd07e894ec930e3f35da366ca99d6>@@@Z 00430350     libucrt:onexit.obj
 0002:00008370       __sehtable$__query_new_handler 00430370     libucrt:new_handler.obj
 0002:00008390       __sehtable$_terminate      00430390     libucrt:terminate.obj
 0002:000083b0       __sehtable$??$?RV<lambda_e5124f882df8998aaf41531e079ba474>@@AAV<lambda_3e16ef9562a7dcce91392c22ab16ea36>@@V<lambda_e25ca0880e6ef98be67edffd8c599615>@@@?$__crt_seh_guarded_call@X@@QAEX$$QAV<lambda_e5124f882df8998aaf41531e079ba474>@@AAV<lambda_3e16ef9562a7dcce91392c22ab16ea36>@@$$QAV<lambda_e25ca0880e6ef98be67edffd8c599615>@@@Z 004303b0     libucrt:wsetlocale.obj
 0002:000083d0       __sehtable$??$?RV<lambda_15ade71b0218206bbe3333a0c9b79046>@@AAV<lambda_da44e0f8b0f19ba52fefafb335991732>@@V<lambda_207f2d024fc103971653565357d6cd41>@@@?$__crt_seh_guarded_call@X@@QAEX$$QAV<lambda_15ade71b0218206bbe3333a0c9b79046>@@AAV<lambda_da44e0f8b0f19ba52fefafb335991732>@@$$QAV<lambda_207f2d024fc103971653565357d6cd41>@@@Z 004303d0     libucrt:per_thread_data.obj
 0002:000083f0       __sehtable$??$?RV<lambda_a7e850c220f1c8d1e6efeecdedd162c6>@@AAV<lambda_46720907175c18b6c9d2717bc0d2d362>@@V<lambda_9048902d66e8d99359bc9897bbb930a8>@@@?$__crt_seh_guarded_call@X@@QAEX$$QAV<lambda_a7e850c220f1c8d1e6efeecdedd162c6>@@AAV<lambda_46720907175c18b6c9d2717bc0d2d362>@@$$QAV<lambda_9048902d66e8d99359bc9897bbb930a8>@@@Z 004303f0     libucrt:per_thread_data.obj
 0002:00008410       __sehtable$??$?RV<lambda_38edbb1296d33220d7e4dd0ed76b244a>@@AAV<lambda_5ce1d447e08cb34b2473517608e21441>@@V<lambda_fb385d3da700c9147fc39e65dd577a8c>@@@?$__crt_seh_guarded_call@X@@QAEX$$QAV<lambda_38edbb1296d33220d7e4dd0ed76b244a>@@AAV<lambda_5ce1d447e08cb34b2473517608e21441>@@$$QAV<lambda_fb385d3da700c9147fc39e65dd577a8c>@@@Z 00430410     libucrt:per_thread_data.obj
 0002:00008430       __sehtable$??$?RV<lambda_6affb1475c98b40b75cdec977db92e3c>@@AAV<lambda_b8d4b9c228a6ecc3f80208dbb4b4a104>@@V<lambda_608742c3c92a14382c1684fc64f96c88>@@@?$__crt_seh_guarded_call@X@@QAEX$$QAV<lambda_6affb1475c98b40b75cdec977db92e3c>@@AAV<lambda_b8d4b9c228a6ecc3f80208dbb4b4a104>@@$$QAV<lambda_608742c3c92a14382c1684fc64f96c88>@@@Z 00430430     libucrt:per_thread_data.obj
 0002:00008450       __sehtable$?__acrt_stdio_allocate_stream@@YA?AV__crt_stdio_stream@@XZ 00430450     libucrt:stream.obj
 0002:00008470       __sehtable$??$?RV<lambda_d422a76eb4c3bf3ad751449ab71a6ea4>@@AAV<lambda_c9ba49e555ba839a7b07aa3fbecb7617>@@V<lambda_9476263c8ee91a25d21c55370bdb50de>@@@?$__crt_seh_guarded_call@H@@QAEH$$QAV<lambda_d422a76eb4c3bf3ad751449ab71a6ea4>@@AAV<lambda_c9ba49e555ba839a7b07aa3fbecb7617>@@$$QAV<lambda_9476263c8ee91a25d21c55370bdb50de>@@@Z 00430470     libucrt:close.obj
 0002:00008490       __sehtable$??$?RV<lambda_2866be3712abc81a800a822484c830d8>@@AAV<lambda_39ca0ed439415581b5b15c265174cece>@@V<lambda_2b24c74d71094a6cd0cb82e44167d71b>@@@?$__crt_seh_guarded_call@X@@QAEX$$QAV<lambda_2866be3712abc81a800a822484c830d8>@@AAV<lambda_39ca0ed439415581b5b15c265174cece>@@$$QAV<lambda_2b24c74d71094a6cd0cb82e44167d71b>@@@Z 00430490     libucrt:fflush.obj
 0002:000084b0       __sehtable$??$?RV<lambda_2cc53f568c5a2bb6f192f930a45d44ea>@@AAV<lambda_ab61a845afdef5b7c387490eaf3616ee>@@V<lambda_c2ffc0b7726aa6be21d5f0026187e748>@@@?$__crt_seh_guarded_call@X@@QAEX$$QAV<lambda_2cc53f568c5a2bb6f192f930a45d44ea>@@AAV<lambda_ab61a845afdef5b7c387490eaf3616ee>@@$$QAV<lambda_c2ffc0b7726aa6be21d5f0026187e748>@@@Z 004304b0     libucrt:fflush.obj
 0002:000084d0       __sehtable$__read          004304d0     libucrt:read.obj
 0002:000084f0       __sehtable$___acrt_initialize_lowio 004304f0     libucrt:ioinit.obj
 0002:00008510       __sehtable$__write_internal 00430510     libucrt:write.obj
 0002:00008530       __sehtable$__isindst       00430530     libucrt:tzset.obj
 0002:00008550       __sehtable$___tzset        00430550     libucrt:tzset.obj
 0002:00008570       __sehtable$?update_thread_multibyte_data_internal@@YAPAU__crt_multibyte_data@@QAU__acrt_ptd@@QAPAU1@@Z 00430570     libucrt:mbctype.obj
 0002:00008590       __sehtable$??$?RV<lambda_ceb1ee4838e85a9d631eb091e2fbe199>@@AAV<lambda_ae742caa10f662c28703da3d2ea5e57e>@@V<lambda_cd08b5d6af4937fe54fc07d0c9bf6b37>@@@?$__crt_seh_guarded_call@X@@QAEX$$QAV<lambda_ceb1ee4838e85a9d631eb091e2fbe199>@@AAV<lambda_ae742caa10f662c28703da3d2ea5e57e>@@$$QAV<lambda_cd08b5d6af4937fe54fc07d0c9bf6b37>@@@Z 00430590     libucrt:mbctype.obj
 0002:000085b0       __sehtable$_raise          004305b0     libucrt:signal.obj
 0002:000085d0       __sehtable$??$?RV<lambda_cbab9ec6f41b0180b23cc171c22676b0>@@AAV<lambda_44731a7d0e6d81c3e6aa82d741081786>@@V<lambda_4b292cb8dd18144e164572427af410ab>@@@?$__crt_seh_guarded_call@P6AXH@Z@@QAEP6AXH@Z$$QAV<lambda_cbab9ec6f41b0180b23cc171c22676b0>@@AAV<lambda_44731a7d0e6d81c3e6aa82d741081786>@@$$QAV<lambda_4b292cb8dd18144e164572427af410ab>@@@Z 004305d0     libucrt:signal.obj
 0002:000085f0       __sehtable$__alloc_osfhnd  004305f0     libucrt:osfinfo.obj
 0002:00008610       __sehtable$___acrt_lowio_ensure_fh_exists 00430610     libucrt:osfinfo.obj
 0002:00008630       __sehtable$___acrt_update_thread_locale_data 00430630     libucrt:locale_refcounting.obj
 0002:00008650       __sehtable$__fcloseall     00430650     libucrt:closeall.obj
 0002:00008670       __sehtable$??$common_sopen_dispatch@D@@YAHQBDHHHQAHH@Z 00430670     libucrt:open.obj
 0002:00008690       __sehtable$??$?RV<lambda_9e9de3de5fa147e2223d7db92bc10aa6>@@AAV<lambda_38ce7e780aa69e748d6df282ebc68efe>@@V<lambda_8ca6da459f0f6780f1cff60fdc3d00e5>@@@?$__crt_seh_guarded_call@H@@QAEH$$QAV<lambda_9e9de3de5fa147e2223d7db92bc10aa6>@@AAV<lambda_38ce7e780aa69e748d6df282ebc68efe>@@$$QAV<lambda_8ca6da459f0f6780f1cff60fdc3d00e5>@@@Z 00430690     libucrt:commit.obj
 0002:000086b0       __sehtable$??$common_lseek@_J@@YA_JH_JHAAV__crt_cached_ptd_host@@@Z 004306b0     libucrt:lseek.obj
 0002:000086d0       __sehtable$??$common_getenv_s@_W@@YAHQAIQA_WIQB_W@Z 004306d0     libucrt:getenv.obj
 0002:000086f0       __sehtable$___set_fpsr_sse2 004306f0     libucrt:fpctrl.obj
 0002:00008710       __sehtable$__IsNonwritableInCurrentImage 00430710     LIBCMT:pesect.obj
 0002:00008e30       .idata$6                   00430e30     kernel32:KERNEL32.dll
 0002:00008ff4       .idata$6                   00430ff4     user32:USER32.dll
 0002:0000907c       .idata$6                   0043107c     gdi32:GDI32.dll
 0002:000090b4       .idata$6                   004310b4     ws2_32:WS2_32.dll
 0002:000090d4       .idata$6                   004310d4     dbghelp:dbghelp.dll
 0002:00009134       .idata$6                   00431134     Psapi:PSAPI.DLL
 0003:00000020       ?__vcrt_flsindex@@3KA      00432020     libvcruntime:per_thread_data.obj
 0003:00000050       ?__acrt_flsindex@@3KA      00432050     libucrt:per_thread_data.obj
 0003:00000054       ?errno_no_memory@@3HA      00432054     libucrt:errno.obj
 0003:00000058       ?doserrno_no_memory@@3KA   00432058     libucrt:errno.obj
 0003:00000310       ?tzstd_program@@3PADA      00432310     libucrt:timeset.obj
 0003:00000350       ?tzdst_program@@3PADA      00432350     libucrt:timeset.obj
 0003:00000390       ?w_tzstd_program@@3PA_WA   00432390     libucrt:timeset.obj
 0003:00000410       ?w_tzdst_program@@3PA_WA   00432410     libucrt:timeset.obj
 0003:00000490       ?tzname_states@@3PAY01PADA 00432490     libucrt:timeset.obj
 0003:00000498       ?w_tzname_states@@3PAY01PA_WA 00432498     libucrt:timeset.obj
 0003:000004a0       ?dststart@@3Utransitiondate@?A0x7639d0b4@@A 004324a0     libucrt:tzset.obj
 0003:000004ac       ?dstend@@3Utransitiondate@?A0x7639d0b4@@A 004324ac     libucrt:tzset.obj
 0003:000006d8       __mbctypes                 004326d8     libucrt:mbctype.obj
 0003:000007e0       __mbcasemaps               004327e0     libucrt:mbctype.obj
 0003:000008e0       ?__rgctypeflag@@3PADA      004328e0     libucrt:mbctype.obj
 0003:000008e8       ?__rgcode_page_info@@3PAUcode_page_info@@A 004328e8     libucrt:mbctype.obj
 0003:00000a40       ?__DAZ_ENABLED@?1??__set_fpsr_sse2@@9@9 00432a40     libucrt:fpctrl.obj
 0003:00000a50       ?__dcrt_lowio_console_output_handle@@3PAXA 00432a50     libucrt:initcon.obj
 0003:00006000       ?is_initialized_as_dll@@3_NA 00438000     LIBCMT:utility.obj
 0003:00006001       ?module_local_atexit_table_initialized@@3_NA 00438001     LIBCMT:utility.obj
 0003:00006004       ?module_local_atexit_table@@3U_onexit_table_t@@A 00438004     LIBCMT:utility.obj
 0003:00006010       ?module_local_at_quick_exit_table@@3U_onexit_table_t@@A 00438010     LIBCMT:utility.obj
 0003:00006020       _GS_ExceptionRecord        00438020     LIBCMT:gs_report.obj
 0003:00006070       _GS_ContextRecord          00438070     LIBCMT:gs_report.obj
 0003:00006354       ?__vcrt_startup_thread_ptd@@3U__vcrt_ptd@@A 00438354     libvcruntime:per_thread_data.obj
 0003:0000637c       ___vcrt_lock_table         0043837c     libvcruntime:locks.obj
 0003:00006394       ___vcrt_locks_initialized  00438394     libvcruntime:locks.obj
 0003:000063c0       ?heap@@3V_HeapManager@@A   004383c0     libvcruntime:undname.obj
 0003:000063d4       ?module_handles@@3PAPAUHINSTANCE__@@A 004383d4     libvcruntime:winapi_downlevel.obj
 0003:000063e0       ?function_pointers@@3PAPAXA 004383e0     libvcruntime:winapi_downlevel.obj
 0003:000063f8       ?__acrt_invalid_parameter_handler@@3V?$dual_state_global@P6AXPB_W00II@Z@__crt_state_management@@A 004383f8     libucrt:invalid_parameter.obj
 0003:000063fc       ?c_termination_complete@@3JA 004383fc     libucrt:exit.obj
 0003:00006400       ?thread_local_exit_callback_func@@3P6GXPAXK0@ZA 00438400     libucrt:exit.obj
 0003:00006408       ?program_name@?1???$common_configure_argv@D@@YAHW4_crt_argv_mode@@@Z@4PADA 00438408     libucrt:argv_parsing.obj
 0003:00006538       ?__acrt_new_handler@@3V?$dual_state_global@P6AHI@Z@__crt_state_management@@A 00438538     libucrt:new_handler.obj
 0003:0000653c       ?__acrt_app_type@@3W4_crt_app_type@@A 0043853c     libucrt:report_runtime_error.obj
 0003:00006540       ?user_matherr@@3V?$dual_state_global@P6AHPAU_exception@@@Z@__crt_state_management@@A 00438540     libucrt:matherr.obj
 0003:00006544       ?empty_string@?1???$common_wincmdln@E@@YAPAEXZ@4PAEA 00438544     libucrt:argv_winmain.obj
 0003:0000654c       ?__acrt_global_new_mode@@3V?$dual_state_global@J@__crt_state_management@@A 0043854c     libucrt:new_mode.obj
 0003:00006564       ?internal_state@?1??_mbtowc_internal@@9@4U_Mbstatet@@A 00438564     libucrt:mbtowc.obj
 0003:0000656c       ?enable_percent_n@@3IA     0043856c     libucrt:printf_count_output.obj
 0003:00006780       ?module_handles@@3PAPAUHINSTANCE__@@A 00438780     libucrt:winapi_thunks.obj
 0003:000067d0       ?encoded_function_pointers@@3PAPAXA 004387d0     libucrt:winapi_thunks.obj
 0003:00006864       ?_tzname@@3V?$dual_state_global@PAPAD@__crt_state_management@@A 00438864     libucrt:timeset.obj
 0003:00006868       ?w_tzname@@3V?$dual_state_global@PAPA_W@__crt_state_management@@A 00438868     libucrt:timeset.obj
 0003:0000686c       ?last_wide_tz@@3PA_WA      0043886c     libucrt:tzset.obj
 0003:00006870       ?tz_api_used@@3HA          00438870     libucrt:tzset.obj
 0003:00006874       ?tzset_init_state@@3V?$dual_state_global@J@__crt_state_management@@A 00438874     libucrt:tzset.obj
 0003:00006878       ?tz_info@@3U_TIME_ZONE_INFORMATION@@A 00438878     libucrt:tzset.obj
 0003:00006928       ?__acrt_lock_table@@3PAU_RTL_CRITICAL_SECTION@@A 00438928     libucrt:locks.obj
 0003:00006a78       ?__acrt_locks_initialized@@3IA 00438a78     libucrt:locks.obj
 0003:00006a88       ?fSystemSet@@3HA           00438a88     libucrt:mbctype.obj
 0003:00006a8c       ?initialized@?1??__acrt_initialize_multibyte@@9@4_NA 00438a8c     libucrt:mbctype.obj
 0003:00006aac       ?ctrlc_action@@3V?$dual_state_global@P6AXH@Z@__crt_state_management@@A 00438aac     libucrt:signal.obj
 0003:00006ab0       ?ctrlbreak_action@@3V?$dual_state_global@P6AXH@Z@__crt_state_management@@A 00438ab0     libucrt:signal.obj
 0003:00006ab4       ?abort_action@@3V?$dual_state_global@P6AXH@Z@__crt_state_management@@A 00438ab4     libucrt:signal.obj
 0003:00006ab8       ?term_action@@3V?$dual_state_global@P6AXH@Z@__crt_state_management@@A 00438ab8     libucrt:signal.obj
 0003:00006acc       ?internal_pst@?1??__mbrtoc32_utf8@__crt_mbstring@@YAIPA_UPBDIPAU_Mbstatet@@AAV__crt_cached_ptd_host@@@Z@4U3@A 00438acc     libucrt:mbrtoc32.obj
 0003:00006ad8       __pmatherr_set             00438ad8     libucrt:libm_error.obj
 0003:000770b8       ?QueueInfo@?BG@??DataRecv@CSocketManager@@QAE_NHPAUIO_MAIN_BUFFER@@@Z@4UQUEUE_INFO@@A 004a90b8     SocketManager.obj
 0003:000790c0       ?QueueInfo@?3??ServerQueueThread@CSocketManager@@SGKPAV2@@Z@4UQUEUE_INFO@@A 004ab0c0     SocketManager.obj
 0004:00000580       $R000000                   004ae580     HackServer.res
 0004:00002330       $R001DB0                   004b0330     HackServer.res
 0004:00012b58       $R0125D8                   004c0b58     HackServer.res
 0004:0001c000       $R01BA80                   004ca000     HackServer.res
 0004:00020228       $R01FCA8                   004ce228     HackServer.res
 0004:000227d0       $R022250                   004d07d0     HackServer.res
 0004:00023878       $R0232F8                   004d1878     HackServer.res
 0004:00024200       $R023C80                   004d2200     HackServer.res
 0004:00024668       $R0240E8                   004d2668     HackServer.res
 0004:000246e0       $R024160                   004d26e0     HackServer.res
 0004:00026490       $R025F10                   004d4490     HackServer.res
 0004:00036cb8       $R036738                   004e4cb8     HackServer.res
 0004:00040160       $R03FBE0                   004ee160     HackServer.res
 0004:00044388       $R043E08                   004f2388     HackServer.res
 0004:00046930       $R0463B0                   004f4930     HackServer.res
 0004:000479d8       $R047458                   004f59d8     HackServer.res
 0004:00048360       $R047DE0                   004f6360     HackServer.res
 0004:000487c8       $R048248                   004f67c8     HackServer.res
 0004:00048840       $R0482C0                   004f6840     HackServer.res
 0004:000489d8       $R048458                   004f69d8     HackServer.res
 0004:000489e8       $R048468                   004f69e8     HackServer.res
 0004:00048b10       $R048590                   004f6b10     HackServer.res
 0004:00048c38       $R0486B8                   004f6c38     HackServer.res
 0004:00048f78       $R0489F8                   004f6f78     HackServer.res
 0004:00048fc0       $R048A40                   004f6fc0     HackServer.res
